***********************************************************************
*
*	CODE GENERATION LISTING FOR: Test_Stand_HMI
*	COMPILER VERSION: 5.22.0.18
*
***********************************************************************

**************************************************
	CODE GENERATOR SUBROUTINES
**************************************************

$$MOD:
3001E5A0  FB90 F3F1		sdiv r3, r0, r1
3001E5A4  4359     		mul r1, r1, r3
3001E5A6  EBC1 0000		rsb r0, r1, r0
3001E5AA  4770     		bx lr

$$MOD_U:
3001E5AC  FBB0 F3F1		udiv r3, r0, r1
3001E5B0  4359     		mul r1, r1, r3
3001E5B2  EBC1 0000		rsb r0, r1, r0
3001E5B6  4770     		bx lr

**************************************************
	List program: main
**************************************************

PROGRAM main

END_PROGRAM

3001E5C0  B082     		sub sp, sp, #8
3001E5C2  F8CD E000		str lr, [sp]
3001E5C6  E92D 0FF0		stmdb sp!, { r4, r5, r6, r7, r8, r9, r10, r11 }

#0		{SRC:main}
#1		(*$WAITSWITCH$*)
#2		
#3			(* Vin_temp		:= 5.0; *)
#4			MOVE		5.0,Vin_temp	{LNXT:3|4|-1}
(*) UDINT
3001E5CA  F8DF 08D8		ldr r0, [pc, #+2264] ; 0x40A00000 = 5.000000
3001E5CE  EE00 0A10		fmsr s0, r0
3001E5D2  EEB7 0AC0		fcvtds d0, s0
3001E5D6  F8DF 7800		ldr r7, [pc, #+2048] ; 0x200002B0
3001E5DA  ED87 0B00		fstd d0, [r7]

#5		
#6			(* R2_temp			:= 5600; *)
#7			MOVE		5600,R2_temp	{LNXT:4|5|-1}
(*) LREAL
3001E5DE  F44F 50AF		mov r0, #5600 ; 5600
3001E5E2  EE00 0A10		fmsr s0, r0
3001E5E6  EEB8 0B40		fuitod d0, s0
3001E5EA  F8DF 77F0		ldr r7, [pc, #+2032] ; 0x200002B8
3001E5EE  ED87 0B00		fstd d0, [r7]

#8		
#9			(* Vref			:= 10.0; *)
#10			MOVE		10.0,Vref	{LNXT:5|6|-1}
(*) LREAL
3001E5F2  F8DF 08B4		ldr r0, [pc, #+2228] ; 0x41200000 = 10.000000
3001E5F6  EE00 0A10		fmsr s0, r0
3001E5FA  EEB7 0AC0		fcvtds d0, s0
3001E5FE  F8DF 77E0		ldr r7, [pc, #+2016] ; 0x200002C0
3001E602  ED87 0B00		fstd d0, [r7]

#11		
#12			(* bits			:= POW(2,16); *)
#13			LDP0		2	{LNXT:6|7|-1}
(-) LREAL
#14			POW		16	{LNXT:6|7|-1}
(*) USINT
3001E606  2002     		mov r0, #2 ; 2
3001E608  EE00 0A10		fmsr s0, r0
3001E60C  EEB8 0A40		fuitos s0, s0
3001E610  EE10 0A10		fmrs r0, s0
3001E614  2110     		mov r1, #16 ; 16
3001E616  EE00 1A90		fmsr s1, r1
3001E61A  EEF8 0A60		fuitos s1, s1
3001E61E  EE10 1A90		fmrs r1, s1
3001E622  F8DF 47B0		ldr r4, [pc, #+1968] ; 0x8078785
3001E626  F044 0401		orr r4, r4, #1
3001E62A  47A0     		blx r4
3001E62C  EE00 0A10		fmsr s0, r0

#15			ST		bits	{LNXT:6|7|-1}
(*) REAL
3001E630  EEB7 0AC0		fcvtds d0, s0
3001E634  F8DF 77AC		ldr r7, [pc, #+1964] ; 0x200002C8
3001E638  ED87 0B00		fstd d0, [r7]

#16		
#17			(* TempC_ST_max 	:= 80.0; *)
#18			MOVE		80.0,TempC_ST_max	{LNXT:7|8|-1}
(*) LREAL
3001E63C  F8DF 0878		ldr r0, [pc, #+2168] ; 0x42A00000 = 80.000000
3001E640  EE00 0A10		fmsr s0, r0
3001E644  F8DF 77A0		ldr r7, [pc, #+1952] ; 0x200002D0
3001E648  ED87 0A00		fsts s0, [r7]

#19		
#20			(* TempC_eh_max	:= 40.0; *)
#21			MOVE		40.0,TempC_eh_max	{LNXT:8|23|-1}
(*) REAL
3001E64C  F8DF 0860		ldr r0, [pc, #+2144] ; 0x42200000 = 40.000000
3001E650  EE00 0A10		fmsr s0, r0
3001E654  F8DF 7794		ldr r7, [pc, #+1940] ; 0x200002D4
3001E658  ED87 0A00		fsts s0, [r7]

#22		
#23			(* V_set_v_elect_heat := (2.366 - (2.316*(Vtrim/60.0))) + 0.082; *)
#24			LD		2.366	{LNXT:23|26|-1}
(*) UNDEF
3001E65C  F8DF 0840		ldr r0, [pc, #+2112] ; 0x40176C8B = 2.366000
3001E660  EE00 0A10		fmsr s0, r0

#25			SUB(		Vtrim	{LNXT:23|26|-1}
(*) REAL
3001E664  B082     		sub sp, sp, #8
3001E666  ED8D 0A00		fsts s0, [sp]
3001E66A  F8DF 7784		ldr r7, [pc, #+1924] ; 0x200002D8
3001E66E  ED97 0B00		fldd d0, [r7]

#26			DIV		60.0	{LNXT:23|26|-1}
(*) LREAL
3001E672  F8DF 7840		ldr r7, [pc, #+2112] ; 0x42700000 = 60.000000
3001E676  EE03 7A90		fmsr s7, r7
3001E67A  EEB7 7AE3		fcvtds d7, s7
3001E67E  EE80 0B07		fdivd d0, d0, d7

#27			MUL		2.316	{LNXT:23|26|-1}
(*) LREAL
3001E682  F8DF 7818		ldr r7, [pc, #+2072] ; 0x40143958 = 2.316000
3001E686  EE03 7A90		fmsr s7, r7
3001E68A  EEB7 7AE3		fcvtds d7, s7
3001E68E  EE20 0B07		fmuld d0, d0, d7

#28			)	{LNXT:23|26|-1}
(*) LREAL
3001E692  EEB0 7B40		fcpyd d7, d0
3001E696  ED9D 0A00		flds s0, [sp]
3001E69A  B002     		add sp, sp, #8
3001E69C  EEB7 0AC0		fcvtds d0, s0
3001E6A0  EE30 0B47		fsubd d0, d0, d7

#29			ADD		0.082	{LNXT:23|26|-1}
(*) LREAL
3001E6A4  F8DF 77D8		ldr r7, [pc, #+2008] ; 0x3DA7EF9E = 0.082000
3001E6A8  EE03 7A90		fmsr s7, r7
3001E6AC  EEB7 7AE3		fcvtds d7, s7
3001E6B0  EE30 0B07		faddd d0, d0, d7

#30			ST		V_set_v_elect_heat	{LNXT:23|26|-1}
(*) LREAL
3001E6B4  F8DF 77B0		ldr r7, [pc, #+1968] ; 0x240206E0
3001E6B8  B082     		sub sp, sp, #8
3001E6BA  ED8D 0B00		fstd d0, [sp]
3001E6BE  EEB7 0BC0		fcvtsd s0, d0
3001E6C2  ED87 0A00		fsts s0, [r7]
3001E6C6  ED9D 0B00		fldd d0, [sp]
3001E6CA  B002     		add sp, sp, #8

#31		
#32			(* I_set_v_elect_heat := ((2.085*(Itrim/20.0)) + 0.0953) + 0.082; *)
#33			LD		Itrim	{LNXT:26|37|-1}
(*) UNDEF
3001E6CC  F8DF 7724		ldr r7, [pc, #+1828] ; 0x200002E0
3001E6D0  ED97 0B00		fldd d0, [r7]

#34			DIV		20.0	{LNXT:26|37|-1}
(*) LREAL
3001E6D4  F8DF 77D4		ldr r7, [pc, #+2004] ; 0x41A00000 = 20.000000
3001E6D8  EE03 7A90		fmsr s7, r7
3001E6DC  EEB7 7AE3		fcvtds d7, s7
3001E6E0  EE80 0B07		fdivd d0, d0, d7

#35			MUL		2.085	{LNXT:26|37|-1}
(*) LREAL
3001E6E4  F8DF 77B0		ldr r7, [pc, #+1968] ; 0x400570A4 = 2.085000
3001E6E8  EE03 7A90		fmsr s7, r7
3001E6EC  EEB7 7AE3		fcvtds d7, s7
3001E6F0  EE20 0B07		fmuld d0, d0, d7

#36			ADD		0.0953	{LNXT:26|37|-1}
(*) LREAL
3001E6F4  F8DF 778C		ldr r7, [pc, #+1932] ; 0x3DC32CA5 = 0.095300
3001E6F8  EE03 7A90		fmsr s7, r7
3001E6FC  EEB7 7AE3		fcvtds d7, s7
3001E700  EE30 0B07		faddd d0, d0, d7

#37			ADD		0.082	{LNXT:26|37|-1}
(*) LREAL
3001E704  F8DF 7778		ldr r7, [pc, #+1912] ; 0x3DA7EF9E = 0.082000
3001E708  EE03 7A90		fmsr s7, r7
3001E70C  EEB7 7AE3		fcvtds d7, s7
3001E710  EE30 0B07		faddd d0, d0, d7

#38			ST		I_set_v_elect_heat	{LNXT:26|37|-1}
(*) LREAL
3001E714  F8DF 7754		ldr r7, [pc, #+1876] ; 0x240206E4
3001E718  B082     		sub sp, sp, #8
3001E71A  ED8D 0B00		fstd d0, [sp]
3001E71E  EEB7 0BC0		fcvtsd s0, d0
3001E722  ED87 0A00		fsts s0, [r7]
3001E726  ED9D 0B00		fldd d0, [sp]
3001E72A  B002     		add sp, sp, #8

#39		
#40		
#41			(* IF cnt > 99 *)
#42			LD		cnt	{LNXT:37|-1|-1}
(*) UNDEF
3001E72C  F8DF 76C8		ldr r7, [pc, #+1736] ; 0x200002E8
3001E730  ED97 0A00		flds s0, [r7]

#43			GT		99	{LNXT:37|-1|-1}
(*) REAL
3001E734  B082     		sub sp, sp, #8
3001E736  EDCD 0A00		fsts s1, [sp]
3001E73A  2163     		mov r1, #99 ; 99
3001E73C  EE00 1A90		fmsr s1, r1
3001E740  EEF8 0A60		fuitos s1, s1
3001E744  EEB4 0A60		fcmps s0, s1
3001E748  EEF1 FA10		fmstat
3001E74C  EDDD 0A00		flds s1, [sp]
3001E750  B002     		add sp, sp, #8
3001E752  BFD8 2000		lemov r0, #0
3001E756  BFC8 2001		gtmov r0, #1

#44			JMPCN	$label0	{LNXT:37|38|52}
(-) BOOL
3001E75A  2800     		cmp r0, #0
3001E75C  F000 80DA		beq #436 ; 0x3001E914


#45		
#46			(* THEN *)
#47		
#48				(* cnt := 0; *)
#49				MOVE		0,cnt	{LNXT:38|40|-1}
(*) BOOL
3001E760  2000     		mov r0, #0 ; 0
3001E762  EE00 0A10		fmsr s0, r0
3001E766  EEB8 0A40		fuitos s0, s0
3001E76A  F8DF 768C		ldr r7, [pc, #+1676] ; 0x200002E8
3001E76E  ED87 0A00		fsts s0, [r7]

#50		
#51		
#52				(* IF TempC_Pump_max - Temp_C_eh) > 0.25 OR (Temp_C_eh - TempC_Pump_max) > 0.25 *)
#53				LD		Temp_C_eh	{LNXT:40|-1|-1}
(*) UNDEF
3001E772  F8DF 76E4		ldr r7, [pc, #+1764] ; 0x200003CC
3001E776  ED97 0B00		fldd d0, [r7]

#54				SUB		TempC_Pump_max	{LNXT:40|-1|-1}
(*) LREAL
3001E77A  F8DF 76E0		ldr r7, [pc, #+1760] ; 0x2401F18C
3001E77E  EDD7 3A00		flds s7, [r7]
3001E782  EEB7 7AE3		fcvtds d7, s7
3001E786  EE30 0B47		fsubd d0, d0, d7

#55				GT		0.25	{LNXT:40|-1|-1}
(*) LREAL
3001E78A  B082     		sub sp, sp, #8
3001E78C  ED8D 2B00		fstd d2, [sp]
3001E790  B082     		sub sp, sp, #8
3001E792  ED8D 3B00		fstd d3, [sp]
3001E796  F8DF 26F0		ldr r2, [pc, #+1776] ; 0x3E800000 = 0.250000
3001E79A  EE01 2A10		fmsr s2, r2
3001E79E  EEB7 2AC1		fcvtds d2, s2
3001E7A2  EEB4 0B42		fcmpd d0, d2
3001E7A6  EEF1 FA10		fmstat
3001E7AA  ED9D 3B00		fldd d3, [sp]
3001E7AE  B002     		add sp, sp, #8
3001E7B0  ED9D 2B00		fldd d2, [sp]
3001E7B4  B002     		add sp, sp, #8
3001E7B6  BFD8 2000		lemov r0, #0
3001E7BA  BFC8 2001		gtmov r0, #1

#56				OR(		TempC_Pump_max	{LNXT:40|-1|-1}
(*) BOOL
3001E7BE  B082     		sub sp, sp, #8
3001E7C0  F8CD 0000		str r0, [sp]
3001E7C4  F8DF 7694		ldr r7, [pc, #+1684] ; 0x2401F18C
3001E7C8  ED97 0A00		flds s0, [r7]

#57				SUB		Temp_C_eh	{LNXT:40|-1|-1}
(*) REAL
3001E7CC  EEB7 0AC0		fcvtds d0, s0
3001E7D0  F8DF 7684		ldr r7, [pc, #+1668] ; 0x200003CC
3001E7D4  ED97 7B00		fldd d7, [r7]
3001E7D8  EE30 0B47		fsubd d0, d0, d7

#58				GT		0.25	{LNXT:40|-1|-1}
(*) LREAL
3001E7DC  B082     		sub sp, sp, #8
3001E7DE  ED8D 2B00		fstd d2, [sp]
3001E7E2  B082     		sub sp, sp, #8
3001E7E4  ED8D 3B00		fstd d3, [sp]
3001E7E8  F8DF 269C		ldr r2, [pc, #+1692] ; 0x3E800000 = 0.250000
3001E7EC  EE01 2A10		fmsr s2, r2
3001E7F0  EEB7 2AC1		fcvtds d2, s2
3001E7F4  EEB4 0B42		fcmpd d0, d2
3001E7F8  EEF1 FA10		fmstat
3001E7FC  ED9D 3B00		fldd d3, [sp]
3001E800  B002     		add sp, sp, #8
3001E802  ED9D 2B00		fldd d2, [sp]
3001E806  B002     		add sp, sp, #8
3001E808  BFD8 2000		lemov r0, #0
3001E80C  BFC8 2001		gtmov r0, #1

#59				)	{LNXT:40|-1|-1}
(*) BOOL
3001E810  4607     		mov r7, r0
3001E812  F8DD 0000		ldr r0, [sp]
3001E816  B002     		add sp, sp, #8
3001E818  4338     		orr r0, r0, r7

#60				JMPCN	$label2	{LNXT:40|41|44}
(-) BOOL
3001E81A  2800     		cmp r0, #0
3001E81C  D036     		beq #108 ; 0x3001E88C


#61		
#62				(* THEN *)
#63		
#64					(* cnt_setpoint := (-100 * Temp_C_eh) + (100 * (TempC_Pump_max + 0.50)); *)
#65					LD		TempC_Pump_max	{LNXT:41|44|-1}
(*) UNDEF
3001E820  F8DF 7638		ldr r7, [pc, #+1592] ; 0x2401F18C
3001E824  ED97 0A00		flds s0, [r7]

#66					ADD		0.50	{LNXT:41|44|-1}
(*) REAL
3001E828  F8DF 7660		ldr r7, [pc, #+1632] ; 0x3F000000 = 0.500000
3001E82C  EE03 7A90		fmsr s7, r7
3001E830  EE30 0A23		fadds s0, s0, s7

#67					MUL		100	{LNXT:41|44|-1}
(*) REAL
3001E834  2764     		mov r7, #100 ; 100
3001E836  EE03 7A90		fmsr s7, r7
3001E83A  EEF8 3A63		fuitos s7, s7
3001E83E  EE20 0A23		fmuls s0, s0, s7

#68					ADD(		-100	{LNXT:41|44|-1}
(*) REAL
3001E842  B082     		sub sp, sp, #8
3001E844  ED8D 0A00		fsts s0, [sp]
3001E848  F8DF 767C		ldr r7, [pc, #+1660] ; 0xFFFFFF9C
3001E84C  4638     		mov r0, r7

#69					MUL		Temp_C_eh	{LNXT:41|44|-1}
(*) SINT
3001E84E  EE00 0A10		fmsr s0, r0
3001E852  EEB8 0BC0		fsitod d0, s0
3001E856  F8DF 7600		ldr r7, [pc, #+1536] ; 0x200003CC
3001E85A  ED97 7B00		fldd d7, [r7]
3001E85E  EE20 0B07		fmuld d0, d0, d7

#70					)	{LNXT:41|44|-1}
(*) LREAL
3001E862  EEB0 7B40		fcpyd d7, d0
3001E866  ED9D 0A00		flds s0, [sp]
3001E86A  B002     		add sp, sp, #8
3001E86C  EEB7 0AC0		fcvtds d0, s0
3001E870  EE30 0B07		faddd d0, d0, d7

#71					ST		cnt_setpoint	{LNXT:41|44|-1}
(*) LREAL
3001E874  F8DF 7588		ldr r7, [pc, #+1416] ; 0x200002F0
3001E878  B082     		sub sp, sp, #8
3001E87A  ED8D 0B00		fstd d0, [sp]
3001E87E  EEB7 0BC0		fcvtsd s0, d0
3001E882  ED87 0A00		fsts s0, [r7]
3001E886  ED9D 0B00		fldd d0, [sp]
3001E88A  B002     		add sp, sp, #8

#72		
#73		$label2:
#74				(* END_IF *)
#75		
#76		
#77				(* IF cnt_setpoint < 1.0 *)
#78				LD		cnt_setpoint	{LNXT:44|-1|-1}
(*) UNDEF
3001E88C  F8DF 7570		ldr r7, [pc, #+1392] ; 0x200002F0
3001E890  ED97 0A00		flds s0, [r7]

#79				LT		1.0	{LNXT:44|-1|-1}
(*) REAL
3001E894  B082     		sub sp, sp, #8
3001E896  EDCD 0A00		fsts s1, [sp]
3001E89A  F8DF 15F4		ldr r1, [pc, #+1524] ; 0x3F800000 = 1.000000
3001E89E  EE00 1A90		fmsr s1, r1
3001E8A2  EEB4 0A60		fcmps s0, s1
3001E8A6  EEF1 FA10		fmstat
3001E8AA  EDDD 0A00		flds s1, [sp]
3001E8AE  B002     		add sp, sp, #8
3001E8B0  BFA8 2000		gemov r0, #0
3001E8B4  BFB8 2001		ltmov r0, #1

#80				JMPCN	$label3	{LNXT:44|45|47}
(-) BOOL
3001E8B8  2800     		cmp r0, #0
3001E8BA  D008     		beq #16 ; 0x3001E8CE


#81		
#82				(* THEN *)
#83		
#84					(* cnt_setpoint := 0.0; *)
#85					MOVE		0.0,cnt_setpoint	{LNXT:45|47|-1}
(*) BOOL
3001E8BE  F8DF 0508		ldr r0, [pc, #+1288] ; 0x0 = 0.000000
3001E8C2  EE00 0A10		fmsr s0, r0
3001E8C6  F8DF 7538		ldr r7, [pc, #+1336] ; 0x200002F0
3001E8CA  ED87 0A00		fsts s0, [r7]

#86		
#87		$label3:
#88				(* END_IF *)
#89		
#90		
#91				(* IF cnt_setpoint > 99.0 *)
#92				LD		cnt_setpoint	{LNXT:47|-1|-1}
(*) UNDEF
3001E8CE  F8DF 7530		ldr r7, [pc, #+1328] ; 0x200002F0
3001E8D2  ED97 0A00		flds s0, [r7]

#93				GT		99.0	{LNXT:47|-1|-1}
(*) REAL
3001E8D6  B082     		sub sp, sp, #8
3001E8D8  EDCD 0A00		fsts s1, [sp]
3001E8DC  F8DF 15DC		ldr r1, [pc, #+1500] ; 0x42C60000 = 99.000000
3001E8E0  EE00 1A90		fmsr s1, r1
3001E8E4  EEB4 0A60		fcmps s0, s1
3001E8E8  EEF1 FA10		fmstat
3001E8EC  EDDD 0A00		flds s1, [sp]
3001E8F0  B002     		add sp, sp, #8
3001E8F2  BFD8 2000		lemov r0, #0
3001E8F6  BFC8 2001		gtmov r0, #1

#94				JMPCN	$label4	{LNXT:47|48|56}
(-) BOOL
3001E8FA  2800     		cmp r0, #0
3001E8FC  D008     		beq #16 ; 0x3001E910


#95		
#96				(* THEN *)
#97		
#98					(* cnt_setpoint := 100.0; *)
#99					MOVE		100.0,cnt_setpoint	{LNXT:48|56|-1}
(*) BOOL
3001E900  F8DF 05BC		ldr r0, [pc, #+1468] ; 0x42C80000 = 100.000000
3001E904  EE00 0A10		fmsr s0, r0
3001E908  F8DF 74F4		ldr r7, [pc, #+1268] ; 0x200002F0
3001E90C  ED87 0A00		fsts s0, [r7]

#100		
#101		$label4:
#102				(* END_IF *)
#103				JMP		$label1	{LNXT:37|38|52}
(-) REAL
3001E910  E00E     		b #28 ; 0x3001E930


#104		$label0:
#105		
#106			(* ELSE *)
#107		
#108				(* cnt := cnt + 1.0; *)
#109				LD		cnt	{LNXT:52|56|-1}
(*) UNDEF
3001E914  F8DF 74E0		ldr r7, [pc, #+1248] ; 0x200002E8
3001E918  ED97 0A00		flds s0, [r7]

#110				ADD		1.0	{LNXT:52|56|-1}
(*) REAL
3001E91C  F8DF 7570		ldr r7, [pc, #+1392] ; 0x3F800000 = 1.000000
3001E920  EE03 7A90		fmsr s7, r7
3001E924  EE30 0A23		fadds s0, s0, s7

#111				ST		cnt	{LNXT:52|56|-1}
(*) REAL
3001E928  F8DF 74CC		ldr r7, [pc, #+1228] ; 0x200002E8
3001E92C  ED87 0A00		fsts s0, [r7]

#112		
#113		$label1:
#114			(* END_IF *)
#115		
#116		
#117			(* IF Temp_C_p+1 <= TempC_Pump_max *)
#118			LD		Temp_C_p	{LNXT:56|-1|-1}
(*) UNDEF
3001E930  F8DF 74C8		ldr r7, [pc, #+1224] ; 0x200002EC
3001E934  ED97 0A00		flds s0, [r7]

#119			ADD		1	{LNXT:56|-1|-1}
(*) REAL
3001E938  2701     		mov r7, #1 ; 1
3001E93A  EE03 7A90		fmsr s7, r7
3001E93E  EEF8 3A63		fuitos s7, s7
3001E942  EE30 0A23		fadds s0, s0, s7

#120			LE		TempC_Pump_max	{LNXT:56|-1|-1}
(*) REAL
3001E946  B082     		sub sp, sp, #8
3001E948  EDCD 0A00		fsts s1, [sp]
3001E94C  F8DF 750C		ldr r7, [pc, #+1292] ; 0x2401F18C
3001E950  EDD7 0A00		flds s1, [r7]
3001E954  EEB4 0A60		fcmps s0, s1
3001E958  EEF1 FA10		fmstat
3001E95C  EDDD 0A00		flds s1, [sp]
3001E960  B002     		add sp, sp, #8
3001E962  BFC8 2000		gtmov r0, #0
3001E966  BFD8 2001		lemov r0, #1

#121			JMPCN	$label5	{LNXT:56|57|59}
(-) BOOL
3001E96A  2800     		cmp r0, #0
3001E96C  D00A     		beq #20 ; 0x3001E984


#122		
#123			(* THEN *)
#124		
#125				(* V_big_heater := 10.0; *)
#126				MOVE		10.0,V_big_heater	{LNXT:57|72|-1}
(*) BOOL
3001E970  F8DF 0534		ldr r0, [pc, #+1332] ; 0x41200000 = 10.000000
3001E974  EE00 0A10		fmsr s0, r0
3001E978  F8DF 74F4		ldr r7, [pc, #+1268] ; 0x240206EC
3001E97C  ED87 0A00		fsts s0, [r7]

#127				JMP		$label6	{LNXT:56|57|59}
(-) REAL
3001E980  E02B     		b #86 ; 0x3001E9DA


#128		$label5:
#129		
#130			(* ELSE *)
#131		
#132		
#133				(* IF cnt <= cnt_setpoint *)
#134				LD		cnt	{LNXT:59|-1|-1}
(*) UNDEF
3001E984  F8DF 7470		ldr r7, [pc, #+1136] ; 0x200002E8
3001E988  ED97 0A00		flds s0, [r7]

#135				LE		cnt_setpoint	{LNXT:59|-1|-1}
(*) REAL
3001E98C  B082     		sub sp, sp, #8
3001E98E  EDCD 0A00		fsts s1, [sp]
3001E992  F8DF 746C		ldr r7, [pc, #+1132] ; 0x200002F0
3001E996  EDD7 0A00		flds s1, [r7]
3001E99A  EEB4 0A60		fcmps s0, s1
3001E99E  EEF1 FA10		fmstat
3001E9A2  EDDD 0A00		flds s1, [sp]
3001E9A6  B002     		add sp, sp, #8
3001E9A8  BFC8 2000		gtmov r0, #0
3001E9AC  BFD8 2001		lemov r0, #1

#136				JMPCN	$label7	{LNXT:59|60|62}
(-) BOOL
3001E9B0  2800     		cmp r0, #0
3001E9B2  D00A     		beq #20 ; 0x3001E9CA


#137		
#138				(* THEN *)
#139		
#140					(* V_big_heater := 10.0; *)
#141					MOVE		10.0,V_big_heater	{LNXT:60|72|-1}
(*) BOOL
3001E9B6  F8DF 04F0		ldr r0, [pc, #+1264] ; 0x41200000 = 10.000000
3001E9BA  EE00 0A10		fmsr s0, r0
3001E9BE  F8DF 74B0		ldr r7, [pc, #+1200] ; 0x240206EC
3001E9C2  ED87 0A00		fsts s0, [r7]

#142					JMP		$label8	{LNXT:59|60|62}
(-) REAL
3001E9C6  E008     		b #16 ; 0x3001E9DA


#143		$label7:
#144		
#145				(* ELSE *)
#146		
#147					(* V_big_heater := 0.0; *)
#148					MOVE		0.0,V_big_heater	{LNXT:62|72|-1}
(*) REAL
3001E9CA  F8DF 03FC		ldr r0, [pc, #+1020] ; 0x0 = 0.000000
3001E9CE  EE00 0A10		fmsr s0, r0
3001E9D2  F8DF 749C		ldr r7, [pc, #+1180] ; 0x240206EC
3001E9D6  ED87 0A00		fsts s0, [r7]

#149		
#150		$label8:
#151				(* END_IF *)
#152		
#153		$label6:
#154			(* END_IF *)
#155		
#156			(* Vout_Thermistor	:= (temp_voltage*(Vref / bits)); *)
#157			LD		Vref	{LNXT:72|75|-1}
(*) UNDEF
3001E9DA  F8DF 7404		ldr r7, [pc, #+1028] ; 0x200002C0
3001E9DE  ED97 0B00		fldd d0, [r7]

#158			DIV		bits	{LNXT:72|75|-1}
(*) LREAL
3001E9E2  F8DF 7400		ldr r7, [pc, #+1024] ; 0x200002C8
3001E9E6  ED97 7B00		fldd d7, [r7]
3001E9EA  EE80 0B07		fdivd d0, d0, d7

#159			MUL		temp_voltage	{LNXT:72|75|-1}
(*) LREAL
3001E9EE  F8DF 7414		ldr r7, [pc, #+1044] ; 0x200002F4
3001E9F2  683F     		ldr r7, [r7]
3001E9F4  EE03 7A90		fmsr s7, r7
3001E9F8  EEB8 7BE3		fsitod d7, s7
3001E9FC  EE20 0B07		fmuld d0, d0, d7

#160			ST		Vout_Thermistor	{LNXT:72|75|-1}
(*) LREAL
3001EA00  F8DF 7404		ldr r7, [pc, #+1028] ; 0x200002F8
3001EA04  ED87 0B00		fstd d0, [r7]

#161		
#162			(* R_Thermistor 	:= ((Vin_temp-(Vout_Thermistor)) * R2_temp)/(Vout_Thermistor); *)
#163			LD		Vin_temp	{LNXT:75|79|-1}
(*) UNDEF
3001EA08  F8DF 73CC		ldr r7, [pc, #+972] ; 0x200002B0
3001EA0C  ED97 0B00		fldd d0, [r7]

#164			SUB		Vout_Thermistor	{LNXT:75|79|-1}
(*) LREAL
3001EA10  F8DF 73F4		ldr r7, [pc, #+1012] ; 0x200002F8
3001EA14  ED97 7B00		fldd d7, [r7]
3001EA18  EE30 0B47		fsubd d0, d0, d7

#165			MUL		R2_temp	{LNXT:75|79|-1}
(*) LREAL
3001EA1C  F8DF 73BC		ldr r7, [pc, #+956] ; 0x200002B8
3001EA20  ED97 7B00		fldd d7, [r7]
3001EA24  EE20 0B07		fmuld d0, d0, d7

#166			DIV		Vout_Thermistor	{LNXT:75|79|-1}
(*) LREAL
3001EA28  F8DF 73DC		ldr r7, [pc, #+988] ; 0x200002F8
3001EA2C  ED97 7B00		fldd d7, [r7]
3001EA30  EE80 0B07		fdivd d0, d0, d7

#167			ST		R_Thermistor	{LNXT:75|79|-1}
(*) LREAL
3001EA34  F8DF 73D4		ldr r7, [pc, #+980] ; 0x20000300
3001EA38  ED87 0B00		fstd d0, [r7]

#168		
#169			(* A				:= 0.001125308852122; *)
#170			MOVE		0.001125308852122,A	{LNXT:79|80|-1}
(*) LREAL
3001EA3C  F8DF 043C		ldr r0, [pc, #+1084] ; 0x3A937F19 = 0.001125
3001EA40  EE00 0A10		fmsr s0, r0
3001EA44  EEB7 0AC0		fcvtds d0, s0
3001EA48  F8DF 73C4		ldr r7, [pc, #+964] ; 0x20000308
3001EA4C  ED87 0B00		fstd d0, [r7]

#171		
#172			(* B				:= 0.000234711863267*ln(R_Thermistor); *)
#173			LDP0		R_Thermistor	{LNXT:80|81|-1}
(-) LREAL
#174			ln	{LNXT:80|81|-1}
(*) LREAL
3001EA50  F8DF 73B8		ldr r7, [pc, #+952] ; 0x20000300
3001EA54  ED97 0B00		fldd d0, [r7]
3001EA58  EC51 0B10		fmrrd r0, r1, d0
3001EA5C  F8DF 4370		ldr r4, [pc, #+880] ; 0x8078739
3001EA60  F044 0401		orr r4, r4, #1
3001EA64  47A0     		blx r4
3001EA66  EC41 0B10		fmdrr d0, r0, r1

#175			MUL		0.000234711863267	{LNXT:80|81|-1}
(*) LREAL
3001EA6A  F8DF 740C		ldr r7, [pc, #+1036] ; 0x39761CFC = 0.000235
3001EA6E  EE03 7A90		fmsr s7, r7
3001EA72  EEB7 7AE3		fcvtds d7, s7
3001EA76  EE20 0B07		fmuld d0, d0, d7

#176			ST		B	{LNXT:80|81|-1}
(*) LREAL
3001EA7A  F8DF 7398		ldr r7, [pc, #+920] ; 0x20000310
3001EA7E  ED87 0B00		fstd d0, [r7]

#177		
#178			(* C				:= 0.000000085663516 * POW(ln(R_Thermistor),3); *)
#179			LDP0		R_Thermistor	{LNXT:81|84|-1}
(-) LREAL
#180			ln	{LNXT:81|84|-1}
(*) LREAL
3001EA82  F8DF 7388		ldr r7, [pc, #+904] ; 0x20000300
3001EA86  ED97 0B00		fldd d0, [r7]
3001EA8A  EC51 0B10		fmrrd r0, r1, d0
3001EA8E  F8DF 4340		ldr r4, [pc, #+832] ; 0x8078739
3001EA92  F044 0401		orr r4, r4, #1
3001EA96  47A0     		blx r4
3001EA98  EC41 0B10		fmdrr d0, r0, r1

#181			POW		3	{LNXT:81|84|-1}
(*) LREAL
3001EA9C  EC51 0B10		fmrrd r0, r1, d0
3001EAA0  2203     		mov r2, #3 ; 3
3001EAA2  EE01 2A10		fmsr s2, r2
3001EAA6  EEB8 2B41		fuitod d2, s2
3001EAAA  EC53 2B12		fmrrd r2, r3, d2
3001EAAE  EC41 0B10		fmdrr d0, r0, r1
3001EAB2  F8DF 4318		ldr r4, [pc, #+792] ; 0x807872D
3001EAB6  F044 0401		orr r4, r4, #1
3001EABA  47A0     		blx r4
3001EABC  EC41 0B10		fmdrr d0, r0, r1

#182			MUL		0.000000085663516	{LNXT:81|84|-1}
(*) LREAL
3001EAC0  F8DF 73B0		ldr r7, [pc, #+944] ; 0x33B7F604 = 0.000000
3001EAC4  EE03 7A90		fmsr s7, r7
3001EAC8  EEB7 7AE3		fcvtds d7, s7
3001EACC  EE20 0B07		fmuld d0, d0, d7

#183			ST		C	{LNXT:81|84|-1}
(*) LREAL
3001EAD0  F8DF 7344		ldr r7, [pc, #+836] ; 0x20000318
3001EAD4  ED87 0B00		fstd d0, [r7]

#184		
#185			(* SHH_inverse 	:= A + B + C; *)
#186			LD		A	{LNXT:84|87|-1}
(*) UNDEF
3001EAD8  F8DF 7334		ldr r7, [pc, #+820] ; 0x20000308
3001EADC  ED97 0B00		fldd d0, [r7]

#187			ADD		B	{LNXT:84|87|-1}
(*) LREAL
3001EAE0  F8DF 7330		ldr r7, [pc, #+816] ; 0x20000310
3001EAE4  ED97 7B00		fldd d7, [r7]
3001EAE8  EE30 0B07		faddd d0, d0, d7

#188			ADD		C	{LNXT:84|87|-1}
(*) LREAL
3001EAEC  F8DF 7328		ldr r7, [pc, #+808] ; 0x20000318
3001EAF0  ED97 7B00		fldd d7, [r7]
3001EAF4  EE30 0B07		faddd d0, d0, d7

#189			ST		SHH_inverse	{LNXT:84|87|-1}
(*) LREAL
3001EAF8  F8DF 7320		ldr r7, [pc, #+800] ; 0x20000320
3001EAFC  ED87 0B00		fstd d0, [r7]

#190		
#191			(* SHH				:= POW((SHH_inverse),-1); *)
#192			LDP0		SHH_inverse	{LNXT:87|90|-1}
(-) LREAL
#193			POW		-1	{LNXT:87|90|-1}
(*) LREAL
3001EB00  F8DF 7318		ldr r7, [pc, #+792] ; 0x20000320
3001EB04  ED97 0B00		fldd d0, [r7]
3001EB08  EC51 0B10		fmrrd r0, r1, d0
3001EB0C  F04F 32FF		mov r2, #4294967295 ; 4294967295
3001EB10  EE01 2A10		fmsr s2, r2
3001EB14  EEB8 2BC1		fsitod d2, s2
3001EB18  EC53 2B12		fmrrd r2, r3, d2
3001EB1C  EC41 0B10		fmdrr d0, r0, r1
3001EB20  F8DF 42A8		ldr r4, [pc, #+680] ; 0x807872D
3001EB24  F044 0401		orr r4, r4, #1
3001EB28  47A0     		blx r4
3001EB2A  EC41 0B10		fmdrr d0, r0, r1

#194			ST		SHH	{LNXT:87|90|-1}
(*) LREAL
3001EB2E  F8DF 72F0		ldr r7, [pc, #+752] ; 0x20000328
3001EB32  ED87 0B00		fstd d0, [r7]

#195		
#196			(* Temp_K			:= SHH; *)
#197			MOVE		SHH,Temp_K	{LNXT:90|91|-1}
(*) LREAL
3001EB36  F8DF 72E8		ldr r7, [pc, #+744] ; 0x20000328
3001EB3A  ED97 0B00		fldd d0, [r7]
3001EB3E  F8DF 72E4		ldr r7, [pc, #+740] ; 0x20000330
3001EB42  ED87 0B00		fstd d0, [r7]

#198		
#199			(* Temp_C			:= (Temp_K) - 273.15; *)
#200			LD		Temp_K	{LNXT:91|92|-1}
(*) UNDEF
3001EB46  F8DF 72DC		ldr r7, [pc, #+732] ; 0x20000330
3001EB4A  ED97 0B00		fldd d0, [r7]

#201			SUB		273.15	{LNXT:91|92|-1}
(*) LREAL
3001EB4E  F8DF 7374		ldr r7, [pc, #+884] ; 0x43889333 = 273.149994
3001EB52  EE03 7A90		fmsr s7, r7
3001EB56  EEB7 7AE3		fcvtds d7, s7
3001EB5A  EE30 0B47		fsubd d0, d0, d7

#202			ST		Temp_C	{LNXT:91|92|-1}
(*) LREAL
3001EB5E  F8DF 72C8		ldr r7, [pc, #+712] ; 0x20000338
3001EB62  B082     		sub sp, sp, #8
3001EB64  ED8D 0B00		fstd d0, [sp]
3001EB68  EEB7 0BC0		fcvtsd s0, d0
3001EB6C  ED87 0A00		fsts s0, [r7]
3001EB70  ED9D 0B00		fldd d0, [sp]
3001EB74  B002     		add sp, sp, #8

#203		
#204			(* Temp_F			:= (((Temp_K) - 273.15) * 1.8) + 32; *)
#205			LD		Temp_K	{LNXT:92|101|-1}
(*) UNDEF
3001EB76  F8DF 72AC		ldr r7, [pc, #+684] ; 0x20000330
3001EB7A  ED97 0B00		fldd d0, [r7]

#206			SUB		273.15	{LNXT:92|101|-1}
(*) LREAL
3001EB7E  F8DF 7344		ldr r7, [pc, #+836] ; 0x43889333 = 273.149994
3001EB82  EE03 7A90		fmsr s7, r7
3001EB86  EEB7 7AE3		fcvtds d7, s7
3001EB8A  EE30 0B47		fsubd d0, d0, d7

#207			MUL		1.8	{LNXT:92|101|-1}
(*) LREAL
3001EB8E  F8DF 7304		ldr r7, [pc, #+772] ; 0x3FE66666 = 1.800000
3001EB92  EE03 7A90		fmsr s7, r7
3001EB96  EEB7 7AE3		fcvtds d7, s7
3001EB9A  EE20 0B07		fmuld d0, d0, d7

#208			ADD		32	{LNXT:92|101|-1}
(*) LREAL
3001EB9E  2720     		mov r7, #32 ; 32
3001EBA0  EE03 7A90		fmsr s7, r7
3001EBA4  EEB8 7B63		fuitod d7, s7
3001EBA8  EE30 0B07		faddd d0, d0, d7

#209			ST		Temp_F	{LNXT:92|101|-1}
(*) LREAL
3001EBAC  F8DF 727C		ldr r7, [pc, #+636] ; 0x2000033C
3001EBB0  ED87 0B00		fstd d0, [r7]

#210		
#211			(* Vout_Thermistor_p	:= (temp_voltage_p*(Vref / bits)); *)
#212			LD		Vref	{LNXT:101|104|-1}
(*) UNDEF
3001EBB4  F8DF 7228		ldr r7, [pc, #+552] ; 0x200002C0
3001EBB8  ED97 0B00		fldd d0, [r7]

#213			DIV		bits	{LNXT:101|104|-1}
(*) LREAL
3001EBBC  F8DF 7224		ldr r7, [pc, #+548] ; 0x200002C8
3001EBC0  ED97 7B00		fldd d7, [r7]
3001EBC4  EE80 0B07		fdivd d0, d0, d7

#214			MUL		temp_voltage_p	{LNXT:101|104|-1}
(*) LREAL
3001EBC8  F8DF 7298		ldr r7, [pc, #+664] ; 0x2402067C
3001EBCC  683F     		ldr r7, [r7]
3001EBCE  EE03 7A90		fmsr s7, r7
3001EBD2  EEB8 7BE3		fsitod d7, s7
3001EBD6  EE20 0B07		fmuld d0, d0, d7

#215			ST		Vout_Thermistor_p	{LNXT:101|104|-1}
(*) LREAL
3001EBDA  F8DF 7254		ldr r7, [pc, #+596] ; 0x20000344
3001EBDE  ED87 0B00		fstd d0, [r7]

#216		
#217			(* R_Thermistor_p 	:= ((Vin_temp-(Vout_Thermistor_p)) * R2_temp)/(Vout_Thermistor_p); *)
#218			LD		Vin_temp	{LNXT:104|108|-1}
(*) UNDEF
3001EBE2  F8DF 71F4		ldr r7, [pc, #+500] ; 0x200002B0
3001EBE6  ED97 0B00		fldd d0, [r7]

#219			SUB		Vout_Thermistor_p	{LNXT:104|108|-1}
(*) LREAL
3001EBEA  F8DF 7244		ldr r7, [pc, #+580] ; 0x20000344
3001EBEE  ED97 7B00		fldd d7, [r7]
3001EBF2  EE30 0B47		fsubd d0, d0, d7

#220			MUL		R2_temp	{LNXT:104|108|-1}
(*) LREAL
3001EBF6  F8DF 71E4		ldr r7, [pc, #+484] ; 0x200002B8
3001EBFA  ED97 7B00		fldd d7, [r7]
3001EBFE  EE20 0B07		fmuld d0, d0, d7

#221			DIV		Vout_Thermistor_p	{LNXT:104|108|-1}
(*) LREAL
3001EC02  F8DF 722C		ldr r7, [pc, #+556] ; 0x20000344
3001EC06  ED97 7B00		fldd d7, [r7]
3001EC0A  EE80 0B07		fdivd d0, d0, d7

#222			ST		R_Thermistor_p	{LNXT:104|108|-1}
(*) LREAL
3001EC0E  F8DF 7224		ldr r7, [pc, #+548] ; 0x2000034C
3001EC12  ED87 0B00		fstd d0, [r7]

#223		
#224			(* A_p				:= 0.001125308852122; *)
#225			MOVE		0.001125308852122,A_p	{LNXT:108|109|-1}
(*) LREAL
3001EC16  F8DF 0264		ldr r0, [pc, #+612] ; 0x3A937F19 = 0.001125
3001EC1A  EE00 0A10		fmsr s0, r0
3001EC1E  EEB7 0AC0		fcvtds d0, s0
3001EC22  F8DF 7214		ldr r7, [pc, #+532] ; 0x20000354
3001EC26  ED87 0B00		fstd d0, [r7]

#226		
#227			(* B_p				:= 0.000234711863267*ln(R_Thermistor_p); *)
#228			LDP0		R_Thermistor_p	{LNXT:109|110|-1}
(-) LREAL
#229			ln	{LNXT:109|110|-1}
(*) LREAL
3001EC2A  F8DF 7208		ldr r7, [pc, #+520] ; 0x2000034C
3001EC2E  ED97 0B00		fldd d0, [r7]
3001EC32  EC51 0B10		fmrrd r0, r1, d0
3001EC36  F8DF 4198		ldr r4, [pc, #+408] ; 0x8078739
3001EC3A  F044 0401		orr r4, r4, #1
3001EC3E  47A0     		blx r4
3001EC40  EC41 0B10		fmdrr d0, r0, r1

#230			MUL		0.000234711863267	{LNXT:109|110|-1}
(*) LREAL
3001EC44  F8DF 7230		ldr r7, [pc, #+560] ; 0x39761CFC = 0.000235
3001EC48  EE03 7A90		fmsr s7, r7
3001EC4C  EEB7 7AE3		fcvtds d7, s7
3001EC50  EE20 0B07		fmuld d0, d0, d7

#231			ST		B_p	{LNXT:109|110|-1}
(*) LREAL
3001EC54  F8DF 71E4		ldr r7, [pc, #+484] ; 0x2000035C
3001EC58  ED87 0B00		fstd d0, [r7]

#232		
#233			(* C_p				:= 0.000000085663516 * POW(ln(R_Thermistor_p),3); *)
#234			LDP0		R_Thermistor_p	{LNXT:110|113|-1}
(-) LREAL
#235			ln	{LNXT:110|113|-1}
(*) LREAL
3001EC5C  F8DF 71D4		ldr r7, [pc, #+468] ; 0x2000034C
3001EC60  ED97 0B00		fldd d0, [r7]
3001EC64  EC51 0B10		fmrrd r0, r1, d0
3001EC68  F8DF 4164		ldr r4, [pc, #+356] ; 0x8078739
3001EC6C  F044 0401		orr r4, r4, #1
3001EC70  47A0     		blx r4
3001EC72  EC41 0B10		fmdrr d0, r0, r1

#236			POW		3	{LNXT:110|113|-1}
(*) LREAL
3001EC76  EC51 0B10		fmrrd r0, r1, d0
3001EC7A  2203     		mov r2, #3 ; 3
3001EC7C  EE01 2A10		fmsr s2, r2
3001EC80  EEB8 2B41		fuitod d2, s2
3001EC84  EC53 2B12		fmrrd r2, r3, d2
3001EC88  EC41 0B10		fmdrr d0, r0, r1
3001EC8C  F8DF 413C		ldr r4, [pc, #+316] ; 0x807872D
3001EC90  F044 0401		orr r4, r4, #1
3001EC94  47A0     		blx r4
3001EC96  EC41 0B10		fmdrr d0, r0, r1

#237			MUL		0.000000085663516	{LNXT:110|113|-1}
(*) LREAL
3001EC9A  F8DF 71D8		ldr r7, [pc, #+472] ; 0x33B7F604 = 0.000000
3001EC9E  EE03 7A90		fmsr s7, r7
3001ECA2  EEB7 7AE3		fcvtds d7, s7
3001ECA6  EE20 0B07		fmuld d0, d0, d7

#238			ST		C_p	{LNXT:110|113|-1}
(*) LREAL
3001ECAA  F8DF 7194		ldr r7, [pc, #+404] ; 0x20000364
3001ECAE  ED87 0B00		fstd d0, [r7]

#239		
#240			(* SHH_inverse_p 	:= A_p + B_p + C_p; *)
#241			LD		A_p	{LNXT:113|116|-1}
(*) UNDEF
3001ECB2  F8DF 7184		ldr r7, [pc, #+388] ; 0x20000354
3001ECB6  ED97 0B00		fldd d0, [r7]

#242			ADD		B_p	{LNXT:113|116|-1}
(*) LREAL
3001ECBA  F8DF 7180		ldr r7, [pc, #+384] ; 0x2000035C
3001ECBE  ED97 7B00		fldd d7, [r7]
3001ECC2  EE30 0B07		faddd d0, d0, d7

#243			ADD		C_p	{LNXT:113|116|-1}
(*) LREAL
3001ECC6  F8DF 7178		ldr r7, [pc, #+376] ; 0x20000364
3001ECCA  ED97 7B00		fldd d7, [r7]
3001ECCE  EE30 0B07		faddd d0, d0, d7

#244			ST		SHH_inverse_p	{LNXT:113|116|-1}
(*) LREAL
3001ECD2  F8DF 7170		ldr r7, [pc, #+368] ; 0x2000036C
3001ECD6  ED87 0B00		fstd d0, [r7]

#245		
#246			(* SHH_p			:= POW((SHH_inverse_p),-1); *)
#247			LDP0		SHH_inverse_p	{LNXT:116|119|-1}
(-) LREAL
#248			POW		-1	{LNXT:116|119|-1}
(*) LREAL
3001ECDA  F8DF 7168		ldr r7, [pc, #+360] ; 0x2000036C
3001ECDE  ED97 0B00		fldd d0, [r7]
3001ECE2  EC51 0B10		fmrrd r0, r1, d0
3001ECE6  F04F 32FF		mov r2, #4294967295 ; 4294967295
3001ECEA  EE01 2A10		fmsr s2, r2
3001ECEE  EEB8 2BC1		fsitod d2, s2
3001ECF2  EC53 2B12		fmrrd r2, r3, d2
3001ECF6  EC41 0B10		fmdrr d0, r0, r1
3001ECFA  F8DF 40D0		ldr r4, [pc, #+208] ; 0x807872D
3001ECFE  F044 0401		orr r4, r4, #1
3001ED02  47A0     		blx r4
3001ED04  EC41 0B10		fmdrr d0, r0, r1

#249			ST		SHH_p	{LNXT:116|119|-1}
(*) LREAL
3001ED08  F8DF 713C		ldr r7, [pc, #+316] ; 0x20000374
3001ED0C  ED87 0B00		fstd d0, [r7]

#250		
#251			(* Temp_K_p		:= SHH_p; *)
#252			MOVE		SHH_p,Temp_K_p	{LNXT:119|120|-1}
(*) LREAL
3001ED10  F8DF 7134		ldr r7, [pc, #+308] ; 0x20000374
3001ED14  ED97 0B00		fldd d0, [r7]
3001ED18  F8DF 7130		ldr r7, [pc, #+304] ; 0x2000037C
3001ED1C  ED87 0B00		fstd d0, [r7]

#253		
#254			(* Temp_C_p		:= (Temp_K_p) - 273.15; *)
#255			LD		Temp_K_p	{LNXT:120|121|-1}
(*) UNDEF
3001ED20  F8DF 7128		ldr r7, [pc, #+296] ; 0x2000037C
3001ED24  ED97 0B00		fldd d0, [r7]

#256			SUB		273.15	{LNXT:120|121|-1}
(*) LREAL
3001ED28  F8DF 7198		ldr r7, [pc, #+408] ; 0x43889333 = 273.149994
3001ED2C  EE03 7A90		fmsr s7, r7
3001ED30  EEB7 7AE3		fcvtds d7, s7
3001ED34  EE30 0B47		fsubd d0, d0, d7

#257			ST		Temp_C_p	{LNXT:120|121|-1}
(*) LREAL
3001ED38  F8DF 70C0		ldr r7, [pc, #+192] ; 0x200002EC
3001ED3C  B082     		sub sp, sp, #8
3001ED3E  ED8D 0B00		fstd d0, [sp]
3001ED42  EEB7 0BC0		fcvtsd s0, d0
3001ED46  ED87 0A00		fsts s0, [r7]
3001ED4A  ED9D 0B00		fldd d0, [sp]
3001ED4E  B002     		add sp, sp, #8

#258		
#259			(* Temp_F_p		:= (((Temp_K_p) - 273.15) * 1.8) + 32; *)
#260			LD		Temp_K_p	{LNXT:121|130|-1}
(*) UNDEF
3001ED50  F8DF 70F8		ldr r7, [pc, #+248] ; 0x2000037C
3001ED54  ED97 0B00		fldd d0, [r7]

#261			SUB		273.15	{LNXT:121|130|-1}
(*) LREAL
3001ED58  F8DF 7168		ldr r7, [pc, #+360] ; 0x43889333 = 273.149994
3001ED5C  EE03 7A90		fmsr s7, r7
3001ED60  EEB7 7AE3		fcvtds d7, s7
3001ED64  EE30 0B47		fsubd d0, d0, d7

#262			MUL		1.8	{LNXT:121|130|-1}
(*) LREAL
3001ED68  F8DF 7128		ldr r7, [pc, #+296] ; 0x3FE66666 = 1.800000
3001ED6C  EE03 7A90		fmsr s7, r7
3001ED70  EEB7 7AE3		fcvtds d7, s7
3001ED74  EE20 0B07		fmuld d0, d0, d7

#263			ADD		32	{LNXT:121|130|-1}
(*) LREAL
3001ED78  2720     		mov r7, #32 ; 32
3001ED7A  EE03 7A90		fmsr s7, r7
3001ED7E  EEB8 7B63		fuitod d7, s7
3001ED82  EE30 0B07		faddd d0, d0, d7

#264			ST		Temp_F_p	{LNXT:121|130|-1}
(*) LREAL
3001ED86  F8DF 70C8		ldr r7, [pc, #+200] ; 0x20000384
3001ED8A  ED87 0B00		fstd d0, [r7]

#265		
#266			(* Vout_Thermistor_eh	:= (temp_voltage_elect_heater*(Vref / bits)); *)
#267			LD		Vref	{LNXT:130|133|-1}
(*) UNDEF
3001ED8E  F8DF 7050		ldr r7, [pc, #+80] ; 0x200002C0
3001ED92  ED97 0B00		fldd d0, [r7]

#268			DIV		bits	{LNXT:130|133|-1}
(*) LREAL
3001ED96  F8DF 704C		ldr r7, [pc, #+76] ; 0x200002C8
3001ED9A  ED97 7B00		fldd d7, [r7]
3001ED9E  EE80 0B07		fdivd d0, d0, d7

#269			MUL		temp_voltage_elect_heater	{LNXT:130|133|-1}
(*) LREAL
3001EDA2  F8DF 70BC		ldr r7, [pc, #+188] ; 0x24020678
3001EDA6  683F     		ldr r7, [r7]
3001EDA8  EE03 7A90		fmsr s7, r7
3001EDAC  EEB8 7BE3		fsitod d7, s7
3001EDB0  EE20 0B07		fmuld d0, d0, d7

#270			ST		Vout_Thermistor_eh	{LNXT:130|133|-1}
(*) LREAL
3001EDB4  F8DF 709C		ldr r7, [pc, #+156] ; 0x2000038C
3001EDB8  ED87 0B00		fstd d0, [r7]

#271		
#272			(* R_Thermistor_eh		:= ((Vin_temp-(Vout_Thermistor_eh)) * R2_temp)/(Vout_Thermistor_eh); *)
#273			LD		Vin_temp	{LNXT:133|137|-1}
(*) UNDEF
3001EDBC  F8DF 7018		ldr r7, [pc, #+24] ; 0x200002B0
3001EDC0  ED97 0B00		fldd d0, [r7]

3001EDC4  E082     		b #260

3001EDC8  00000000		; 0x00000000
3001EDCC  FFFFFFFF		; 0x0807872D
3001EDD0  FFFFFFFF		; 0x08078739
3001EDD4  FFFFFFFF		; 0x08078785
3001EDD8  200002B0		; 0x200002B0
3001EDDC  200002B8		; 0x200002B8
3001EDE0  200002C0		; 0x200002C0
3001EDE4  200002C8		; 0x200002C8
3001EDE8  200002D0		; 0x200002D0
3001EDEC  200002D4		; 0x200002D4
3001EDF0  200002D8		; 0x200002D8
3001EDF4  200002E0		; 0x200002E0
3001EDF8  200002E8		; 0x200002E8
3001EDFC  200002EC		; 0x200002EC
3001EE00  200002F0		; 0x200002F0
3001EE04  200002F4		; 0x200002F4
3001EE08  200002F8		; 0x200002F8
3001EE0C  20000300		; 0x20000300
3001EE10  20000308		; 0x20000308
3001EE14  20000310		; 0x20000310
3001EE18  20000318		; 0x20000318
3001EE1C  20000320		; 0x20000320
3001EE20  20000328		; 0x20000328
3001EE24  20000330		; 0x20000330
3001EE28  20000338		; 0x20000338
3001EE2C  2000033C		; 0x2000033C
3001EE30  20000344		; 0x20000344
3001EE34  2000034C		; 0x2000034C
3001EE38  20000354		; 0x20000354
3001EE3C  2000035C		; 0x2000035C
3001EE40  20000364		; 0x20000364
3001EE44  2000036C		; 0x2000036C
3001EE48  20000374		; 0x20000374
3001EE4C  2000037C		; 0x2000037C
3001EE50  20000384		; 0x20000384
3001EE54  2000038C		; 0x2000038C
3001EE58  200003CC		; 0x200003CC
3001EE5C  FFFFFFFF		; 0x2401F18C
3001EE60  FFFFFFFF		; 0x24020678
3001EE64  FFFFFFFF		; 0x2402067C
3001EE68  FFFFFFFF		; 0x240206E0
3001EE6C  FFFFFFFF		; 0x240206E4
3001EE70  FFFFFFFF		; 0x240206EC
3001EE74  33B7F604		; 0x33B7F604
3001EE78  39761CFC		; 0x39761CFC
3001EE7C  3A937F19		; 0x3A937F19
3001EE80  3DA7EF9E		; 0x3DA7EF9E
3001EE84  3DC32CA5		; 0x3DC32CA5
3001EE88  3E800000		; 0x3E800000
3001EE8C  3F000000		; 0x3F000000
3001EE90  3F800000		; 0x3F800000
3001EE94  3FE66666		; 0x3FE66666
3001EE98  400570A4		; 0x400570A4
3001EE9C  40143958		; 0x40143958
3001EEA0  40176C8B		; 0x40176C8B
3001EEA4  40A00000		; 0x40A00000
3001EEA8  41200000		; 0x41200000
3001EEAC  41A00000		; 0x41A00000
3001EEB0  42200000		; 0x42200000
3001EEB4  42700000		; 0x42700000
3001EEB8  42A00000		; 0x42A00000
3001EEBC  42C60000		; 0x42C60000
3001EEC0  42C80000		; 0x42C80000
3001EEC4  43889333		; 0x43889333
3001EEC8  FFFFFF9C		; 0xFFFFFF9C

#274			SUB		Vout_Thermistor_eh	{LNXT:133|137|-1}
(*) LREAL
3001EECC  F85F 707C		ldr r7, [pc, #-124] ; 0x2000038C
3001EED0  ED97 7B00		fldd d7, [r7]
3001EED4  EE30 0B47		fsubd d0, d0, d7

#275			MUL		R2_temp	{LNXT:133|137|-1}
(*) LREAL
3001EED8  F85F 7100		ldr r7, [pc, #-256] ; 0x200002B8
3001EEDC  ED97 7B00		fldd d7, [r7]
3001EEE0  EE20 0B07		fmuld d0, d0, d7

#276			DIV		Vout_Thermistor_eh	{LNXT:133|137|-1}
(*) LREAL
3001EEE4  F85F 7094		ldr r7, [pc, #-148] ; 0x2000038C
3001EEE8  ED97 7B00		fldd d7, [r7]
3001EEEC  EE80 0B07		fdivd d0, d0, d7

#277			ST		R_Thermistor_eh	{LNXT:133|137|-1}
(*) LREAL
3001EEF0  F8DF 736C		ldr r7, [pc, #+876] ; 0x20000394
3001EEF4  ED87 0B00		fstd d0, [r7]

#278		
#279			(* A_eh				:= 0.001125308852122; *)
#280			MOVE		0.001125308852122,A_eh	{LNXT:137|138|-1}
(*) LREAL
3001EEF8  F85F 0080		ldr r0, [pc, #-128] ; 0x3A937F19 = 0.001125
3001EEFC  EE00 0A10		fmsr s0, r0
3001EF00  EEB7 0AC0		fcvtds d0, s0
3001EF04  F8DF 735C		ldr r7, [pc, #+860] ; 0x2000039C
3001EF08  ED87 0B00		fstd d0, [r7]

#281		
#282			(* B_eh				:= 0.000234711863267*ln(R_Thermistor_p); *)
#283			LDP0		R_Thermistor_p	{LNXT:138|139|-1}
(-) LREAL
#284			ln	{LNXT:138|139|-1}
(*) LREAL
3001EF0C  F85F 70DC		ldr r7, [pc, #-220] ; 0x2000034C
3001EF10  ED97 0B00		fldd d0, [r7]
3001EF14  EC51 0B10		fmrrd r0, r1, d0
3001EF18  F85F 414C		ldr r4, [pc, #-332] ; 0x8078739
3001EF1C  F044 0401		orr r4, r4, #1
3001EF20  47A0     		blx r4
3001EF22  EC41 0B10		fmdrr d0, r0, r1

#285			MUL		0.000234711863267	{LNXT:138|139|-1}
(*) LREAL
3001EF26  F85F 70B0		ldr r7, [pc, #-176] ; 0x39761CFC = 0.000235
3001EF2A  EE03 7A90		fmsr s7, r7
3001EF2E  EEB7 7AE3		fcvtds d7, s7
3001EF32  EE20 0B07		fmuld d0, d0, d7

#286			ST		B_eh	{LNXT:138|139|-1}
(*) LREAL
3001EF36  F8DF 7330		ldr r7, [pc, #+816] ; 0x200003A4
3001EF3A  ED87 0B00		fstd d0, [r7]

#287		
#288			(* C_eh				:= 0.000000085663516 * POW(ln(R_Thermistor_p),3); *)
#289			LDP0		R_Thermistor_p	{LNXT:139|142|-1}
(-) LREAL
#290			ln	{LNXT:139|142|-1}
(*) LREAL
3001EF3E  F85F 710C		ldr r7, [pc, #-268] ; 0x2000034C
3001EF42  ED97 0B00		fldd d0, [r7]
3001EF46  EC51 0B10		fmrrd r0, r1, d0
3001EF4A  F85F 417C		ldr r4, [pc, #-380] ; 0x8078739
3001EF4E  F044 0401		orr r4, r4, #1
3001EF52  47A0     		blx r4
3001EF54  EC41 0B10		fmdrr d0, r0, r1

#291			POW		3	{LNXT:139|142|-1}
(*) LREAL
3001EF58  EC51 0B10		fmrrd r0, r1, d0
3001EF5C  2203     		mov r2, #3 ; 3
3001EF5E  EE01 2A10		fmsr s2, r2
3001EF62  EEB8 2B41		fuitod d2, s2
3001EF66  EC53 2B12		fmrrd r2, r3, d2
3001EF6A  EC41 0B10		fmdrr d0, r0, r1
3001EF6E  F85F 41A4		ldr r4, [pc, #-420] ; 0x807872D
3001EF72  F044 0401		orr r4, r4, #1
3001EF76  47A0     		blx r4
3001EF78  EC41 0B10		fmdrr d0, r0, r1

#292			MUL		0.000000085663516	{LNXT:139|142|-1}
(*) LREAL
3001EF7C  F85F 710C		ldr r7, [pc, #-268] ; 0x33B7F604 = 0.000000
3001EF80  EE03 7A90		fmsr s7, r7
3001EF84  EEB7 7AE3		fcvtds d7, s7
3001EF88  EE20 0B07		fmuld d0, d0, d7

#293			ST		C_eh	{LNXT:139|142|-1}
(*) LREAL
3001EF8C  F8DF 72DC		ldr r7, [pc, #+732] ; 0x200003AC
3001EF90  ED87 0B00		fstd d0, [r7]

#294		
#295			(* SHH_inverse_eh 		:= A_eh + B_eh + C_eh; *)
#296			LD		A_eh	{LNXT:142|145|-1}
(*) UNDEF
3001EF94  F8DF 72CC		ldr r7, [pc, #+716] ; 0x2000039C
3001EF98  ED97 0B00		fldd d0, [r7]

#297			ADD		B_eh	{LNXT:142|145|-1}
(*) LREAL
3001EF9C  F8DF 72C8		ldr r7, [pc, #+712] ; 0x200003A4
3001EFA0  ED97 7B00		fldd d7, [r7]
3001EFA4  EE30 0B07		faddd d0, d0, d7

#298			ADD		C_eh	{LNXT:142|145|-1}
(*) LREAL
3001EFA8  F8DF 72C0		ldr r7, [pc, #+704] ; 0x200003AC
3001EFAC  ED97 7B00		fldd d7, [r7]
3001EFB0  EE30 0B07		faddd d0, d0, d7

#299			ST		SHH_inverse_eh	{LNXT:142|145|-1}
(*) LREAL
3001EFB4  F8DF 72B8		ldr r7, [pc, #+696] ; 0x200003B4
3001EFB8  ED87 0B00		fstd d0, [r7]

#300		
#301			(* SHH_eh			:= POW((SHH_inverse_eh),-1); *)
#302			LDP0		SHH_inverse_eh	{LNXT:145|148|-1}
(-) LREAL
#303			POW		-1	{LNXT:145|148|-1}
(*) LREAL
3001EFBC  F8DF 72B0		ldr r7, [pc, #+688] ; 0x200003B4
3001EFC0  ED97 0B00		fldd d0, [r7]
3001EFC4  EC51 0B10		fmrrd r0, r1, d0
3001EFC8  F04F 32FF		mov r2, #4294967295 ; 4294967295
3001EFCC  EE01 2A10		fmsr s2, r2
3001EFD0  EEB8 2BC1		fsitod d2, s2
3001EFD4  EC53 2B12		fmrrd r2, r3, d2
3001EFD8  EC41 0B10		fmdrr d0, r0, r1
3001EFDC  F85F 4214		ldr r4, [pc, #-532] ; 0x807872D
3001EFE0  F044 0401		orr r4, r4, #1
3001EFE4  47A0     		blx r4
3001EFE6  EC41 0B10		fmdrr d0, r0, r1

#304			ST		SHH_eh	{LNXT:145|148|-1}
(*) LREAL
3001EFEA  F8DF 7288		ldr r7, [pc, #+648] ; 0x200003BC
3001EFEE  ED87 0B00		fstd d0, [r7]

#305		
#306			(* Temp_K_eh		:= SHH_eh; *)
#307			MOVE		SHH_eh,Temp_K_eh	{LNXT:148|149|-1}
(*) LREAL
3001EFF2  F8DF 7280		ldr r7, [pc, #+640] ; 0x200003BC
3001EFF6  ED97 0B00		fldd d0, [r7]
3001EFFA  F8DF 727C		ldr r7, [pc, #+636] ; 0x200003C4
3001EFFE  ED87 0B00		fstd d0, [r7]

#308		
#309			(* Temp_C_eh		:= (Temp_K_eh) - 273.15; *)
#310			LD		Temp_K_eh	{LNXT:149|150|-1}
(*) UNDEF
3001F002  F8DF 7274		ldr r7, [pc, #+628] ; 0x200003C4
3001F006  ED97 0B00		fldd d0, [r7]

#311			SUB		273.15	{LNXT:149|150|-1}
(*) LREAL
3001F00A  F85F 7148		ldr r7, [pc, #-328] ; 0x43889333 = 273.149994
3001F00E  EE03 7A90		fmsr s7, r7
3001F012  EEB7 7AE3		fcvtds d7, s7
3001F016  EE30 0B47		fsubd d0, d0, d7

#312			ST		Temp_C_eh	{LNXT:149|150|-1}
(*) LREAL
3001F01A  F85F 71C4		ldr r7, [pc, #-452] ; 0x200003CC
3001F01E  ED87 0B00		fstd d0, [r7]

#313		
#314			(* Temp_F_eh		:= (((Temp_K_eh) - 273.15) * 1.8) + 32; *)
#315			LD		Temp_K_eh	{LNXT:150|160|-1}
(*) UNDEF
3001F022  F8DF 7254		ldr r7, [pc, #+596] ; 0x200003C4
3001F026  ED97 0B00		fldd d0, [r7]

#316			SUB		273.15	{LNXT:150|160|-1}
(*) LREAL
3001F02A  F85F 7168		ldr r7, [pc, #-360] ; 0x43889333 = 273.149994
3001F02E  EE03 7A90		fmsr s7, r7
3001F032  EEB7 7AE3		fcvtds d7, s7
3001F036  EE30 0B47		fsubd d0, d0, d7

#317			MUL		1.8	{LNXT:150|160|-1}
(*) LREAL
3001F03A  F85F 71A8		ldr r7, [pc, #-424] ; 0x3FE66666 = 1.800000
3001F03E  EE03 7A90		fmsr s7, r7
3001F042  EEB7 7AE3		fcvtds d7, s7
3001F046  EE20 0B07		fmuld d0, d0, d7

#318			ADD		32	{LNXT:150|160|-1}
(*) LREAL
3001F04A  2720     		mov r7, #32 ; 32
3001F04C  EE03 7A90		fmsr s7, r7
3001F050  EEB8 7B63		fuitod d7, s7
3001F054  EE30 0B07		faddd d0, d0, d7

#319			ST		Temp_F_eh	{LNXT:150|160|-1}
(*) LREAL
3001F058  F8DF 7220		ldr r7, [pc, #+544] ; 0x200003D4
3001F05C  ED87 0B00		fstd d0, [r7]

#320		
#321			(* pump_v := 5.0*(rpm/5000.0); *)
#322			LD		rpm	{LNXT:160|165|-1}
(*) UNDEF
3001F060  F8DF 722C		ldr r7, [pc, #+556] ; 0x2401F180
3001F064  ED97 0A00		flds s0, [r7]

#323			DIV		5000.0	{LNXT:160|165|-1}
(*) REAL
3001F068  F8DF 7250		ldr r7, [pc, #+592] ; 0x459C4000 = 5000.000000
3001F06C  EE03 7A90		fmsr s7, r7
3001F070  EE80 0A23		fdivs s0, s0, s7
3001F074  EE10 0A10		fmrs r0, s0

#324			MUL		5.0	{LNXT:160|165|-1}
(*) REAL
3001F078  F85F 71D8		ldr r7, [pc, #-472] ; 0x40A00000 = 5.000000
3001F07C  EE03 7A90		fmsr s7, r7
3001F080  EE20 0A23		fmuls s0, s0, s7

#325			ST		pump_v	{LNXT:160|165|-1}
(*) REAL
3001F084  F8DF 7218		ldr r7, [pc, #+536] ; 0x240206E8
3001F088  ED87 0A00		fsts s0, [r7]

#326		
#327			(* Temp_C_p_Act := ((Temp_C_p_Act*0.95) + (Temp_C_p*0.05)); *)
#328			LD		Temp_C_p	{LNXT:165|166|-1}
(*) UNDEF
3001F08C  F85F 7294		ldr r7, [pc, #-660] ; 0x200002EC
3001F090  ED97 0A00		flds s0, [r7]

#329			MUL		0.05	{LNXT:165|166|-1}
(*) REAL
3001F094  F8DF 7210		ldr r7, [pc, #+528] ; 0x3D4CCCCD = 0.050000
3001F098  EE03 7A90		fmsr s7, r7
3001F09C  EE20 0A23		fmuls s0, s0, s7

#330			ADD(		Temp_C_p_Act	{LNXT:165|166|-1}
(*) REAL
3001F0A0  B082     		sub sp, sp, #8
3001F0A2  ED8D 0A00		fsts s0, [sp]
3001F0A6  F8DF 71F0		ldr r7, [pc, #+496] ; 0x2401F188
3001F0AA  ED97 0A00		flds s0, [r7]

#331			MUL		0.95	{LNXT:165|166|-1}
(*) REAL
3001F0AE  F8DF 7200		ldr r7, [pc, #+512] ; 0x3F733333 = 0.950000
3001F0B2  EE03 7A90		fmsr s7, r7
3001F0B6  EE20 0A23		fmuls s0, s0, s7

#332			)	{LNXT:165|166|-1}
(*) REAL
3001F0BA  EEF0 3A40		fcpys s7, s0
3001F0BE  ED9D 0A00		flds s0, [sp]
3001F0C2  B002     		add sp, sp, #8
3001F0C4  EE30 0A23		fadds s0, s0, s7

#333			ST		Temp_C_p_Act	{LNXT:165|166|-1}
(*) REAL
3001F0C8  F8DF 71CC		ldr r7, [pc, #+460] ; 0x2401F188
3001F0CC  ED87 0A00		fsts s0, [r7]

#334		
#335			(* Temp_C_eh_Act := ((Temp_C_eh_Act*0.95) + (Temp_C_eh*0.05)); *)
#336			LD		Temp_C_eh	{LNXT:166|170|-1}
(*) UNDEF
3001F0D0  F85F 727C		ldr r7, [pc, #-636] ; 0x200003CC
3001F0D4  ED97 0B00		fldd d0, [r7]

#337			MUL		0.05	{LNXT:166|170|-1}
(*) LREAL
3001F0D8  F8DF 71CC		ldr r7, [pc, #+460] ; 0x3D4CCCCD = 0.050000
3001F0DC  EE03 7A90		fmsr s7, r7
3001F0E0  EEB7 7AE3		fcvtds d7, s7
3001F0E4  EE20 0B07		fmuld d0, d0, d7

#338			ADD(		Temp_C_eh_Act	{LNXT:166|170|-1}
(*) LREAL
3001F0E8  B082     		sub sp, sp, #8
3001F0EA  ED8D 0B00		fstd d0, [sp]
3001F0EE  F8DF 71AC		ldr r7, [pc, #+428] ; 0x2401F190
3001F0F2  ED97 0A00		flds s0, [r7]

#339			MUL		0.95	{LNXT:166|170|-1}
(*) REAL
3001F0F6  F8DF 71B8		ldr r7, [pc, #+440] ; 0x3F733333 = 0.950000
3001F0FA  EE03 7A90		fmsr s7, r7
3001F0FE  EE20 0A23		fmuls s0, s0, s7

#340			)	{LNXT:166|170|-1}
(*) REAL
3001F102  EEF0 3A40		fcpys s7, s0
3001F106  ED9D 0B00		fldd d0, [sp]
3001F10A  B002     		add sp, sp, #8
3001F10C  EEB7 7AE3		fcvtds d7, s7
3001F110  EE30 0B07		faddd d0, d0, d7

#341			ST		Temp_C_eh_Act	{LNXT:166|170|-1}
(*) LREAL
3001F114  F8DF 7184		ldr r7, [pc, #+388] ; 0x2401F190
3001F118  B082     		sub sp, sp, #8
3001F11A  ED8D 0B00		fstd d0, [sp]
3001F11E  EEB7 0BC0		fcvtsd s0, d0
3001F122  ED87 0A00		fsts s0, [r7]
3001F126  ED9D 0B00		fldd d0, [sp]
3001F12A  B002     		add sp, sp, #8

#342		
#343			(* Temp_Proportion	:= ((TempC_Pump_max+0.9 - Temp_C_eh)/ TempC_Pump_max); *)
#344			LD		TempC_Pump_max	{LNXT:170|171|-1}
(*) UNDEF
3001F12C  F85F 72D4		ldr r7, [pc, #-724] ; 0x2401F18C
3001F130  ED97 0A00		flds s0, [r7]

#345			ADD		0.9	{LNXT:170|171|-1}
(*) REAL
3001F134  F8DF 7174		ldr r7, [pc, #+372] ; 0x3F666666 = 0.900000
3001F138  EE03 7A90		fmsr s7, r7
3001F13C  EE30 0A23		fadds s0, s0, s7

#346			SUB		Temp_C_eh	{LNXT:170|171|-1}
(*) REAL
3001F140  EEB7 0AC0		fcvtds d0, s0
3001F144  F85F 72F0		ldr r7, [pc, #-752] ; 0x200003CC
3001F148  ED97 7B00		fldd d7, [r7]
3001F14C  EE30 0B47		fsubd d0, d0, d7

#347			DIV		TempC_Pump_max	{LNXT:170|171|-1}
(*) LREAL
3001F150  F85F 72F8		ldr r7, [pc, #-760] ; 0x2401F18C
3001F154  EDD7 3A00		flds s7, [r7]
3001F158  EEB7 7AE3		fcvtds d7, s7
3001F15C  EE80 0B07		fdivd d0, d0, d7

#348			ST		Temp_Proportion	{LNXT:170|171|-1}
(*) LREAL
3001F160  F8DF 711C		ldr r7, [pc, #+284] ; 0x200003DC
3001F164  ED87 0B00		fstd d0, [r7]

#349		
#350			(* Itrim_H_PID := 2.0 + 8*Temp_Proportion; *)
#351			LD		8	{LNXT:171|173|-1}
(-) UNDEF
3001F168  2008     		mov r0, #8 ; 8

#352			MUL		Temp_Proportion	{LNXT:171|173|-1}
(*) USINT
3001F16A  EE00 0A10		fmsr s0, r0
3001F16E  EEB8 0B40		fuitod d0, s0
3001F172  F8DF 710C		ldr r7, [pc, #+268] ; 0x200003DC
3001F176  ED97 7B00		fldd d7, [r7]
3001F17A  EE20 0B07		fmuld d0, d0, d7

#353			ADD		2.0	{LNXT:171|173|-1}
(*) LREAL
3001F17E  F8DF 7134		ldr r7, [pc, #+308] ; 0x40000000 = 2.000000
3001F182  EE03 7A90		fmsr s7, r7
3001F186  EEB7 7AE3		fcvtds d7, s7
3001F18A  EE30 0B07		faddd d0, d0, d7

#354			ST		Itrim_H_PID	{LNXT:171|173|-1}
(*) LREAL
3001F18E  F8DF 70F4		ldr r7, [pc, #+244] ; 0x200003E4
3001F192  B082     		sub sp, sp, #8
3001F194  ED8D 0B00		fstd d0, [sp]
3001F198  EEB7 0BC0		fcvtsd s0, d0
3001F19C  ED87 0A00		fsts s0, [r7]
3001F1A0  ED9D 0B00		fldd d0, [sp]
3001F1A4  B002     		add sp, sp, #8

#355		
#356			(* Temp_Proportion_E	:= ((TempC_Pump_max+0.9 - Temp_C_eh)/ TempC_Pump_max); *)
#357			LD		TempC_Pump_max	{LNXT:173|174|-1}
(*) UNDEF
3001F1A6  F85F 734C		ldr r7, [pc, #-844] ; 0x2401F18C
3001F1AA  ED97 0A00		flds s0, [r7]

#358			ADD		0.9	{LNXT:173|174|-1}
(*) REAL
3001F1AE  F8DF 70FC		ldr r7, [pc, #+252] ; 0x3F666666 = 0.900000
3001F1B2  EE03 7A90		fmsr s7, r7
3001F1B6  EE30 0A23		fadds s0, s0, s7

#359			SUB		Temp_C_eh	{LNXT:173|174|-1}
(*) REAL
3001F1BA  EEB7 0AC0		fcvtds d0, s0
3001F1BE  F85F 7368		ldr r7, [pc, #-872] ; 0x200003CC
3001F1C2  ED97 7B00		fldd d7, [r7]
3001F1C6  EE30 0B47		fsubd d0, d0, d7

#360			DIV		TempC_Pump_max	{LNXT:173|174|-1}
(*) LREAL
3001F1CA  F85F 7370		ldr r7, [pc, #-880] ; 0x2401F18C
3001F1CE  EDD7 3A00		flds s7, [r7]
3001F1D2  EEB7 7AE3		fcvtds d7, s7
3001F1D6  EE80 0B07		fdivd d0, d0, d7

#361			ST		Temp_Proportion_E	{LNXT:173|174|-1}
(*) LREAL
3001F1DA  F8DF 70AC		ldr r7, [pc, #+172] ; 0x200003E8
3001F1DE  B082     		sub sp, sp, #8
3001F1E0  ED8D 0B00		fstd d0, [sp]
3001F1E4  EEB7 0BC0		fcvtsd s0, d0
3001F1E8  ED87 0A00		fsts s0, [r7]
3001F1EC  ED9D 0B00		fldd d0, [sp]
3001F1F0  B002     		add sp, sp, #8

#362		
#363			(* Itrim_H_PID_E := 2.0 + 8*Temp_Proportion_E; *)
#364			LD		8	{LNXT:174|201|-1}
(-) UNDEF
3001F1F2  2008     		mov r0, #8 ; 8

#365			MUL		Temp_Proportion_E	{LNXT:174|201|-1}
(*) USINT
3001F1F4  EE00 0A10		fmsr s0, r0
3001F1F8  EEB8 0A40		fuitos s0, s0
3001F1FC  F8DF 7088		ldr r7, [pc, #+136] ; 0x200003E8
3001F200  EDD7 3A00		flds s7, [r7]
3001F204  EE20 0A23		fmuls s0, s0, s7

#366			ADD		2.0	{LNXT:174|201|-1}
(*) REAL
3001F208  F8DF 70A8		ldr r7, [pc, #+168] ; 0x40000000 = 2.000000
3001F20C  EE03 7A90		fmsr s7, r7
3001F210  EE30 0A23		fadds s0, s0, s7

#367			ST		Itrim_H_PID_E	{LNXT:174|201|-1}
(*) REAL
3001F214  F8DF 7074		ldr r7, [pc, #+116] ; 0x200003EC
3001F218  ED87 0A00		fsts s0, [r7]

#368		
#369			(* Itrim := 10.0; *)
#370			MOVE		10.0,Itrim	{LNXT:201|202|-1}
(*) REAL
3001F21C  F85F 0378		ldr r0, [pc, #-888] ; 0x41200000 = 10.000000
3001F220  EE00 0A10		fmsr s0, r0
3001F224  EEB7 0AC0		fcvtds d0, s0
3001F228  F85F 7438		ldr r7, [pc, #-1080] ; 0x200002E0
3001F22C  ED87 0B00		fstd d0, [r7]

#371		
#372			(* Vtrim := 56.0; *)
#373			MOVE		56.0,Vtrim	{LNXT:202|230|-1}
(*) LREAL
3001F230  F8DF 0084		ldr r0, [pc, #+132] ; 0x42600000 = 56.000000
3001F234  EE00 0A10		fmsr s0, r0
3001F238  EEB7 0AC0		fcvtds d0, s0
3001F23C  F85F 7450		ldr r7, [pc, #-1104] ; 0x200002D8
3001F240  ED87 0B00		fstd d0, [r7]

#374		
#375			(* ec := in_EC; *)
#376			MOVE		in_EC,ec	{LNXT:230|3|-1}
(*) LREAL
3001F244  F8DF 705C		ldr r7, [pc, #+92] ; 0x38000000
3001F248  ED97 0A00		flds s0, [r7]
3001F24C  F8DF 7044		ldr r7, [pc, #+68] ; 0x2401F184
3001F250  ED87 0A00		fsts s0, [r7]

3001F254  E8BD 0FF0		ldmia sp!, { r4, r5, r6, r7, r8, r9, r10, r11 }
3001F258  F8DD E000		ldr lr, [sp]
3001F25C  B002     		add sp, sp, #8

3001F25E  4770     		bx lr

3001F260  20000394		; 0x20000394
3001F264  2000039C		; 0x2000039C
3001F268  200003A4		; 0x200003A4
3001F26C  200003AC		; 0x200003AC
3001F270  200003B4		; 0x200003B4
3001F274  200003BC		; 0x200003BC
3001F278  200003C4		; 0x200003C4
3001F27C  200003D4		; 0x200003D4
3001F280  200003DC		; 0x200003DC
3001F284  200003E4		; 0x200003E4
3001F288  200003E8		; 0x200003E8
3001F28C  200003EC		; 0x200003EC
3001F290  FFFFFFFF		; 0x2401F180
3001F294  FFFFFFFF		; 0x2401F184
3001F298  FFFFFFFF		; 0x2401F188
3001F29C  FFFFFFFF		; 0x2401F190
3001F2A0  FFFFFFFF		; 0x240206E8
3001F2A4  FFFFFFFF		; 0x38000000
3001F2A8  3D4CCCCD		; 0x3D4CCCCD
3001F2AC  3F666666		; 0x3F666666
3001F2B0  3F733333		; 0x3F733333
3001F2B4  40000000		; 0x40000000
3001F2B8  42600000		; 0x42600000
3001F2BC  459C4000		; 0x459C4000

END_PROGRAM


**************************************************
	Target variable image generation
**************************************************


*** INPUT:
3001F2C0  4770     		bx lr


*** OUTPUT:
3001F2C2  4770     		bx lr



**************************************************
	Task Fast init code
**************************************************

3001F2C4  B082     		sub sp, sp, #8
3001F2C6  F8CD E000		str lr, [sp]
3001F2CA  E92D 0FF0		stmdb sp!, { r4, r5, r6, r7, r8, r9, r10, r11 }

3001F2CE  E8BD 0FF0		ldmia sp!, { r4, r5, r6, r7, r8, r9, r10, r11 }
3001F2D2  F8DD E000		ldr lr, [sp]
3001F2D6  B002     		add sp, sp, #8

3001F2D8  4770     		bx lr

**************************************************
	List program: InitParDB
**************************************************

PROGRAM InitParDB

        VAR
warningsKiller : USINT;
dummyCrc32 : UDINT;
	END_VAR

END_PROGRAM

3001F2E0  B082     		sub sp, sp, #8
3001F2E2  F8CD E000		str lr, [sp]
3001F2E6  E92D 0FF0		stmdb sp!, { r4, r5, r6, r7, r8, r9, r10, r11 }

#0		{SRC:InitParDB}
#1		(*$WAITSWITCH$*)
#2		
#3			(* dummyCrc32 := 341074644; *)
#4			MOVE		341074644,dummyCrc32	{LNXT:3|5|-1}
(*) UDINT
3001F2EA  F8DF 7070		ldr r7, [pc, #+112] ; 0x145462D4
3001F2EE  4638     		mov r0, r7
3001F2F0  F8DF 7070		ldr r7, [pc, #+112] ; 0x200002A8
3001F2F4  6038     		str r0, [r7]

#5		
#6			(* warningsKiller := sysDBase_SetExtTable( TO_DWORD( ADR($$ParDB) ), $$ParDBLength, 200, 0, 0, 2, 201, TO_DWORD( ADR(%MW201.0) ), 10, 2, 341074644 ); *)
#7			ADR		%MW201.0	{LNXT:5|3|-1}
(*) UDINT
3001F2F6  F8DF 0074		ldr r0, [pc, #+116] ; 0x2401F180

#8			TO_DWORD	{LNXT:5|3|-1}
(-) @WORD
#9			ST		$$TMP3	{LNXT:5|3|-1}
(*) DWORD
3001F2FA  F8DF 706C		ldr r7, [pc, #+108] ; 0x2000045C
3001F2FE  6038     		str r0, [r7]

#10			ADR		$$ParDB	{LNXT:5|3|-1}
(*) DWORD
3001F300  F8DF 006C		ldr r0, [pc, #+108] ; 0x3001E4C0

#11			TO_DWORD	{LNXT:5|3|-1}
(-) @USINT
#12			sysDBase_SetExtTable		$$ParDBLength, 200, 0, 0, 2, 201, $$TMP3, 10, 2, 341074644	{LNXT:5|3|-1}
(*) DWORD
3001F304  B088     		sub sp, sp, #32
3001F306  2705     		mov r7, #5 ; 5
3001F308  4639     		mov r1, r7
3001F30A  27C8     		mov r7, #200 ; 200
3001F30C  463A     		mov r2, r7
3001F30E  2700     		mov r7, #0 ; 0
3001F310  463B     		mov r3, r7
3001F312  2700     		mov r7, #0 ; 0
3001F314  F8CD 7000		str r7, [sp]
3001F318  2702     		mov r7, #2 ; 2
3001F31A  F8CD 7004		str r7, [sp, #+4]
3001F31E  27C9     		mov r7, #201 ; 201
3001F320  F8CD 7008		str r7, [sp, #+8]
3001F324  F8DF 7040		ldr r7, [pc, #+64] ; 0x2000045C
3001F328  683F     		ldr r7, [r7]
3001F32A  F8CD 700C		str r7, [sp, #+12]
3001F32E  270A     		mov r7, #10 ; 10
3001F330  F8CD 7010		str r7, [sp, #+16]
3001F334  2702     		mov r7, #2 ; 2
3001F336  F8CD 7014		str r7, [sp, #+20]
3001F33A  F8DF 7020		ldr r7, [pc, #+32] ; 0x145462D4
3001F33E  463F     		mov r7, r7
3001F340  F8CD 7018		str r7, [sp, #+24]
3001F344  F8DF 4010		ldr r4, [pc, #+16] ; 0x80762CD
3001F348  F044 0401		orr r4, r4, #1
3001F34C  47A0     		blx r4
3001F34E  B008     		add sp, sp, #32

#13			ST		warningsKiller	{LNXT:5|3|-1}
(*) USINT
3001F350  F8DF 700C		ldr r7, [pc, #+12] ; 0x200002A7
3001F354  7038     		strb r0, [r7]

3001F356  E00D     		b #26

3001F358  FFFFFFFF		; 0x080762CD
3001F35C  145462D4		; 0x145462D4
3001F360  200002A7		; 0x200002A7
3001F364  200002A8		; 0x200002A8
3001F368  2000045C		; 0x2000045C
3001F36C  FFFFFFFF		; 0x2401F180
3001F370  3001E4C0		; 0x3001E4C0

END_PROGRAM
**************************************************
	List program: $$IOConfig
**************************************************

PROGRAM $$IOConfig

        VAR
warningsKiller : BOOL;
	END_VAR

END_PROGRAM

#0		{SRC:$$IOConfig}
#1		(*$WAITSWITCH$*)
#2		
#3			(* warningsKiller := sysCfgDOs(0); *)
#4			LDP0		0	{LNXT:4|7|-1}
(-) UDINT
#5			sysCfgDOs	{LNXT:4|7|-1}
(*) USINT
3001F374  2700     		mov r7, #0 ; 0
3001F376  4638     		mov r0, r7
3001F378  F8DF 4218		ldr r4, [pc, #+536] ; 0x807D509
3001F37C  F044 0401		orr r4, r4, #1
3001F380  47A0     		blx r4

#6			ST		warningsKiller	{LNXT:4|7|-1}
(*) BOOL
3001F382  F8DF 722C		ldr r7, [pc, #+556] ; 0x200002A4
3001F386  7038     		strb r0, [r7]

#7		
#8			(* warningsKiller := sysCfgAIs(0); *)
#9			LDP0		0	{LNXT:7|10|-1}
(-) BOOL
#10			sysCfgAIs	{LNXT:7|10|-1}
(*) USINT
3001F388  2700     		mov r7, #0 ; 0
3001F38A  4638     		mov r0, r7
3001F38C  F8DF 4208		ldr r4, [pc, #+520] ; 0x807D529
3001F390  F044 0401		orr r4, r4, #1
3001F394  47A0     		blx r4

#11			ST		warningsKiller	{LNXT:7|10|-1}
(*) BOOL
3001F396  F8DF 7218		ldr r7, [pc, #+536] ; 0x200002A4
3001F39A  7038     		strb r0, [r7]

#12		
#13			(* warningsKiller := sysCfgAO(0, 0); *)
#14			LDP0		0	{LNXT:10|11|-1}
(-) BOOL
#15			sysCfgAO		0	{LNXT:10|11|-1}
(*) USINT
3001F39C  2700     		mov r7, #0 ; 0
3001F39E  4638     		mov r0, r7
3001F3A0  2700     		mov r7, #0 ; 0
3001F3A2  4639     		mov r1, r7
3001F3A4  F8DF 41F4		ldr r4, [pc, #+500] ; 0x807D559
3001F3A8  F044 0401		orr r4, r4, #1
3001F3AC  47A0     		blx r4

#16			ST		warningsKiller	{LNXT:10|11|-1}
(*) BOOL
3001F3AE  F8DF 7200		ldr r7, [pc, #+512] ; 0x200002A4
3001F3B2  7038     		strb r0, [r7]

#17		
#18			(* warningsKiller := sysCfgAO(1, 0); *)
#19			LDP0		1	{LNXT:11|12|-1}
(-) BOOL
#20			sysCfgAO		0	{LNXT:11|12|-1}
(*) USINT
3001F3B4  2701     		mov r7, #1 ; 1
3001F3B6  4638     		mov r0, r7
3001F3B8  2700     		mov r7, #0 ; 0
3001F3BA  4639     		mov r1, r7
3001F3BC  F8DF 41DC		ldr r4, [pc, #+476] ; 0x807D559
3001F3C0  F044 0401		orr r4, r4, #1
3001F3C4  47A0     		blx r4

#21			ST		warningsKiller	{LNXT:11|12|-1}
(*) BOOL
3001F3C6  F8DF 71E8		ldr r7, [pc, #+488] ; 0x200002A4
3001F3CA  7038     		strb r0, [r7]

#22		
#23			(* warningsKiller := sysCfgAO(2, 0); *)
#24			LDP0		2	{LNXT:12|13|-1}
(-) BOOL
#25			sysCfgAO		0	{LNXT:12|13|-1}
(*) USINT
3001F3CC  2702     		mov r7, #2 ; 2
3001F3CE  4638     		mov r0, r7
3001F3D0  2700     		mov r7, #0 ; 0
3001F3D2  4639     		mov r1, r7
3001F3D4  F8DF 41C4		ldr r4, [pc, #+452] ; 0x807D559
3001F3D8  F044 0401		orr r4, r4, #1
3001F3DC  47A0     		blx r4

#26			ST		warningsKiller	{LNXT:12|13|-1}
(*) BOOL
3001F3DE  F8DF 71D0		ldr r7, [pc, #+464] ; 0x200002A4
3001F3E2  7038     		strb r0, [r7]

#27		
#28			(* warningsKiller := sysCfgAO(3, 0); *)
#29			LDP0		3	{LNXT:13|16|-1}
(-) BOOL
#30			sysCfgAO		0	{LNXT:13|16|-1}
(*) USINT
3001F3E4  2703     		mov r7, #3 ; 3
3001F3E6  4638     		mov r0, r7
3001F3E8  2700     		mov r7, #0 ; 0
3001F3EA  4639     		mov r1, r7
3001F3EC  F8DF 41AC		ldr r4, [pc, #+428] ; 0x807D559
3001F3F0  F044 0401		orr r4, r4, #1
3001F3F4  47A0     		blx r4

#31			ST		warningsKiller	{LNXT:13|16|-1}
(*) BOOL
3001F3F6  F8DF 71B8		ldr r7, [pc, #+440] ; 0x200002A4
3001F3FA  7038     		strb r0, [r7]

#32		
#33			(* warningsKiller := sysCfgProgDIOs(0); *)
#34			LDP0		0	{LNXT:16|19|-1}
(-) BOOL
#35			sysCfgProgDIOs	{LNXT:16|19|-1}
(*) USINT
3001F3FC  2700     		mov r7, #0 ; 0
3001F3FE  4638     		mov r0, r7
3001F400  F8DF 419C		ldr r4, [pc, #+412] ; 0x807D55D
3001F404  F044 0401		orr r4, r4, #1
3001F408  47A0     		blx r4

#36			ST		warningsKiller	{LNXT:16|19|-1}
(*) BOOL
3001F40A  F8DF 71A4		ldr r7, [pc, #+420] ; 0x200002A4
3001F40E  7038     		strb r0, [r7]

#37		
#38			(* warningsKiller := sysCfgProgDIO(0, 0); *)
#39			LDP0		0	{LNXT:19|20|-1}
(-) BOOL
#40			sysCfgProgDIO		0	{LNXT:19|20|-1}
(*) USINT
3001F410  2700     		mov r7, #0 ; 0
3001F412  4638     		mov r0, r7
3001F414  2100     		mov r1, #0 ; 0
3001F416  F8DF 418C		ldr r4, [pc, #+396] ; 0x807D57D
3001F41A  F044 0401		orr r4, r4, #1
3001F41E  47A0     		blx r4

#41			ST		warningsKiller	{LNXT:19|20|-1}
(*) BOOL
3001F420  F8DF 718C		ldr r7, [pc, #+396] ; 0x200002A4
3001F424  7038     		strb r0, [r7]

#42		
#43			(* warningsKiller := sysCfgProgDIO(1, 0); *)
#44			LDP0		1	{LNXT:20|21|-1}
(-) BOOL
#45			sysCfgProgDIO		0	{LNXT:20|21|-1}
(*) USINT
3001F426  2701     		mov r7, #1 ; 1
3001F428  4638     		mov r0, r7
3001F42A  2100     		mov r1, #0 ; 0
3001F42C  F8DF 4174		ldr r4, [pc, #+372] ; 0x807D57D
3001F430  F044 0401		orr r4, r4, #1
3001F434  47A0     		blx r4

#46			ST		warningsKiller	{LNXT:20|21|-1}
(*) BOOL
3001F436  F8DF 7178		ldr r7, [pc, #+376] ; 0x200002A4
3001F43A  7038     		strb r0, [r7]

#47		
#48			(* warningsKiller := sysCfgProgDIO(2, 0); *)
#49			LDP0		2	{LNXT:21|22|-1}
(-) BOOL
#50			sysCfgProgDIO		0	{LNXT:21|22|-1}
(*) USINT
3001F43C  2702     		mov r7, #2 ; 2
3001F43E  4638     		mov r0, r7
3001F440  2100     		mov r1, #0 ; 0
3001F442  F8DF 4160		ldr r4, [pc, #+352] ; 0x807D57D
3001F446  F044 0401		orr r4, r4, #1
3001F44A  47A0     		blx r4

#51			ST		warningsKiller	{LNXT:21|22|-1}
(*) BOOL
3001F44C  F8DF 7160		ldr r7, [pc, #+352] ; 0x200002A4
3001F450  7038     		strb r0, [r7]

#52		
#53			(* warningsKiller := sysCfgProgDIO(3, 0); *)
#54			LDP0		3	{LNXT:22|23|-1}
(-) BOOL
#55			sysCfgProgDIO		0	{LNXT:22|23|-1}
(*) USINT
3001F452  2703     		mov r7, #3 ; 3
3001F454  4638     		mov r0, r7
3001F456  2100     		mov r1, #0 ; 0
3001F458  F8DF 4148		ldr r4, [pc, #+328] ; 0x807D57D
3001F45C  F044 0401		orr r4, r4, #1
3001F460  47A0     		blx r4

#56			ST		warningsKiller	{LNXT:22|23|-1}
(*) BOOL
3001F462  F8DF 714C		ldr r7, [pc, #+332] ; 0x200002A4
3001F466  7038     		strb r0, [r7]

#57		
#58			(* warningsKiller := sysCfgProgDIO(4, 0); *)
#59			LDP0		4	{LNXT:23|24|-1}
(-) BOOL
#60			sysCfgProgDIO		0	{LNXT:23|24|-1}
(*) USINT
3001F468  2704     		mov r7, #4 ; 4
3001F46A  4638     		mov r0, r7
3001F46C  2100     		mov r1, #0 ; 0
3001F46E  F8DF 4134		ldr r4, [pc, #+308] ; 0x807D57D
3001F472  F044 0401		orr r4, r4, #1
3001F476  47A0     		blx r4

#61			ST		warningsKiller	{LNXT:23|24|-1}
(*) BOOL
3001F478  F8DF 7134		ldr r7, [pc, #+308] ; 0x200002A4
3001F47C  7038     		strb r0, [r7]

#62		
#63			(* warningsKiller := sysCfgProgDIO(5, 0); *)
#64			LDP0		5	{LNXT:24|25|-1}
(-) BOOL
#65			sysCfgProgDIO		0	{LNXT:24|25|-1}
(*) USINT
3001F47E  2705     		mov r7, #5 ; 5
3001F480  4638     		mov r0, r7
3001F482  2100     		mov r1, #0 ; 0
3001F484  F8DF 411C		ldr r4, [pc, #+284] ; 0x807D57D
3001F488  F044 0401		orr r4, r4, #1
3001F48C  47A0     		blx r4

#66			ST		warningsKiller	{LNXT:24|25|-1}
(*) BOOL
3001F48E  F8DF 7120		ldr r7, [pc, #+288] ; 0x200002A4
3001F492  7038     		strb r0, [r7]

#67		
#68			(* warningsKiller := sysCfgProgDIO(6, 0); *)
#69			LDP0		6	{LNXT:25|26|-1}
(-) BOOL
#70			sysCfgProgDIO		0	{LNXT:25|26|-1}
(*) USINT
3001F494  2706     		mov r7, #6 ; 6
3001F496  4638     		mov r0, r7
3001F498  2100     		mov r1, #0 ; 0
3001F49A  F8DF 4108		ldr r4, [pc, #+264] ; 0x807D57D
3001F49E  F044 0401		orr r4, r4, #1
3001F4A2  47A0     		blx r4

#71			ST		warningsKiller	{LNXT:25|26|-1}
(*) BOOL
3001F4A4  F8DF 7108		ldr r7, [pc, #+264] ; 0x200002A4
3001F4A8  7038     		strb r0, [r7]

#72		
#73			(* warningsKiller := sysCfgProgDIO(7, 0); *)
#74			LDP0		7	{LNXT:26|27|-1}
(-) BOOL
#75			sysCfgProgDIO		0	{LNXT:26|27|-1}
(*) USINT
3001F4AA  2707     		mov r7, #7 ; 7
3001F4AC  4638     		mov r0, r7
3001F4AE  2100     		mov r1, #0 ; 0
3001F4B0  F8DF 40F0		ldr r4, [pc, #+240] ; 0x807D57D
3001F4B4  F044 0401		orr r4, r4, #1
3001F4B8  47A0     		blx r4

#76			ST		warningsKiller	{LNXT:26|27|-1}
(*) BOOL
3001F4BA  F8DF 70F4		ldr r7, [pc, #+244] ; 0x200002A4
3001F4BE  7038     		strb r0, [r7]

#77		
#78			(* warningsKiller := sysCfgProgDIO(8, 0); *)
#79			LDP0		8	{LNXT:27|28|-1}
(-) BOOL
#80			sysCfgProgDIO		0	{LNXT:27|28|-1}
(*) USINT
3001F4C0  2708     		mov r7, #8 ; 8
3001F4C2  4638     		mov r0, r7
3001F4C4  2100     		mov r1, #0 ; 0
3001F4C6  F8DF 40DC		ldr r4, [pc, #+220] ; 0x807D57D
3001F4CA  F044 0401		orr r4, r4, #1
3001F4CE  47A0     		blx r4

#81			ST		warningsKiller	{LNXT:27|28|-1}
(*) BOOL
3001F4D0  F8DF 70DC		ldr r7, [pc, #+220] ; 0x200002A4
3001F4D4  7038     		strb r0, [r7]

#82		
#83			(* warningsKiller := sysCfgProgDIO(9, 0); *)
#84			LDP0		9	{LNXT:28|29|-1}
(-) BOOL
#85			sysCfgProgDIO		0	{LNXT:28|29|-1}
(*) USINT
3001F4D6  2709     		mov r7, #9 ; 9
3001F4D8  4638     		mov r0, r7
3001F4DA  2100     		mov r1, #0 ; 0
3001F4DC  F8DF 40C4		ldr r4, [pc, #+196] ; 0x807D57D
3001F4E0  F044 0401		orr r4, r4, #1
3001F4E4  47A0     		blx r4

#86			ST		warningsKiller	{LNXT:28|29|-1}
(*) BOOL
3001F4E6  F8DF 70C8		ldr r7, [pc, #+200] ; 0x200002A4
3001F4EA  7038     		strb r0, [r7]

#87		
#88			(* warningsKiller := sysCfgProgDIO(10, 0); *)
#89			LDP0		10	{LNXT:29|30|-1}
(-) BOOL
#90			sysCfgProgDIO		0	{LNXT:29|30|-1}
(*) USINT
3001F4EC  270A     		mov r7, #10 ; 10
3001F4EE  4638     		mov r0, r7
3001F4F0  2100     		mov r1, #0 ; 0
3001F4F2  F8DF 40B0		ldr r4, [pc, #+176] ; 0x807D57D
3001F4F6  F044 0401		orr r4, r4, #1
3001F4FA  47A0     		blx r4

#91			ST		warningsKiller	{LNXT:29|30|-1}
(*) BOOL
3001F4FC  F8DF 70B0		ldr r7, [pc, #+176] ; 0x200002A4
3001F500  7038     		strb r0, [r7]

#92		
#93			(* warningsKiller := sysCfgProgDIO(11, 0); *)
#94			LDP0		11	{LNXT:30|33|-1}
(-) BOOL
#95			sysCfgProgDIO		0	{LNXT:30|33|-1}
(*) USINT
3001F502  270B     		mov r7, #11 ; 11
3001F504  4638     		mov r0, r7
3001F506  2100     		mov r1, #0 ; 0
3001F508  F8DF 4098		ldr r4, [pc, #+152] ; 0x807D57D
3001F50C  F044 0401		orr r4, r4, #1
3001F510  47A0     		blx r4

#96			ST		warningsKiller	{LNXT:30|33|-1}
(*) BOOL
3001F512  F8DF 709C		ldr r7, [pc, #+156] ; 0x200002A4
3001F516  7038     		strb r0, [r7]

#97		
#98			(* warningsKiller := sysCfgTempProbes(2); *)
#99			LDP0		2	{LNXT:33|36|-1}
(-) BOOL
#100			sysCfgTempProbes	{LNXT:33|36|-1}
(*) USINT
3001F518  2702     		mov r7, #2 ; 2
3001F51A  4638     		mov r0, r7
3001F51C  F8DF 4088		ldr r4, [pc, #+136] ; 0x807D591
3001F520  F044 0401		orr r4, r4, #1
3001F524  47A0     		blx r4

#101			ST		warningsKiller	{LNXT:33|36|-1}
(*) BOOL
3001F526  F8DF 7088		ldr r7, [pc, #+136] ; 0x200002A4
3001F52A  7038     		strb r0, [r7]

#102		
#103			(* warningsKiller := sysCfgTempProbe(0, TRUE, 400.0, 100.0); *)
#104			LDP0		0	{LNXT:36|37|-1}
(-) BOOL
#105			sysCfgTempProbe		TRUE, 400.0, 100.0	{LNXT:36|37|-1}
(*) USINT
3001F52C  2700     		mov r7, #0 ; 0
3001F52E  4638     		mov r0, r7
3001F530  2101     		mov r1, #1 ; 1
3001F532  F8DF 2084		ldr r2, [pc, #+132] ; 0x43C80000 = 400.000000
3001F536  F8DF 307C		ldr r3, [pc, #+124] ; 0x42C80000 = 100.000000
3001F53A  F8DF 4070		ldr r4, [pc, #+112] ; 0x807D5F5
3001F53E  F044 0401		orr r4, r4, #1
3001F542  47A0     		blx r4

#106			ST		warningsKiller	{LNXT:36|37|-1}
(*) BOOL
3001F544  F8DF 7068		ldr r7, [pc, #+104] ; 0x200002A4
3001F548  7038     		strb r0, [r7]

#107		
#108			(* warningsKiller := sysCfgTempProbe(1, FALSE, 400.0, 100.0); *)
#109			LDP0		1	{LNXT:37|38|-1}
(-) BOOL
#110			sysCfgTempProbe		FALSE, 400.0, 100.0	{LNXT:37|38|-1}
(*) USINT
3001F54A  2701     		mov r7, #1 ; 1
3001F54C  4638     		mov r0, r7
3001F54E  2100     		mov r1, #0 ; 0
3001F550  F8DF 2064		ldr r2, [pc, #+100] ; 0x43C80000 = 400.000000
3001F554  F8DF 305C		ldr r3, [pc, #+92] ; 0x42C80000 = 100.000000
3001F558  F8DF 4050		ldr r4, [pc, #+80] ; 0x807D5F5
3001F55C  F044 0401		orr r4, r4, #1
3001F560  47A0     		blx r4

#111			ST		warningsKiller	{LNXT:37|38|-1}
(*) BOOL
3001F562  F8DF 704C		ldr r7, [pc, #+76] ; 0x200002A4
3001F566  7038     		strb r0, [r7]

#112		
#113			(* warningsKiller := sysCfgTempProbe(2, FALSE, 400.0, 100.0); *)
#114			LDP0		2	{LNXT:38|4|-1}
(-) BOOL
#115			sysCfgTempProbe		FALSE, 400.0, 100.0	{LNXT:38|4|-1}
(*) USINT
3001F568  2702     		mov r7, #2 ; 2
3001F56A  4638     		mov r0, r7
3001F56C  2100     		mov r1, #0 ; 0
3001F56E  F8DF 2048		ldr r2, [pc, #+72] ; 0x43C80000 = 400.000000
3001F572  F8DF 3040		ldr r3, [pc, #+64] ; 0x42C80000 = 100.000000
3001F576  F8DF 4034		ldr r4, [pc, #+52] ; 0x807D5F5
3001F57A  F044 0401		orr r4, r4, #1
3001F57E  47A0     		blx r4

#116			ST		warningsKiller	{LNXT:38|4|-1}
(*) BOOL
3001F580  F8DF 702C		ldr r7, [pc, #+44] ; 0x200002A4
3001F584  7038     		strb r0, [r7]

3001F586  E8BD 0FF0		ldmia sp!, { r4, r5, r6, r7, r8, r9, r10, r11 }
3001F58A  F8DD E000		ldr lr, [sp]
3001F58E  B002     		add sp, sp, #8

3001F590  4770     		bx lr

3001F594  FFFFFFFF		; 0x0807D509
3001F598  FFFFFFFF		; 0x0807D529
3001F59C  FFFFFFFF		; 0x0807D559
3001F5A0  FFFFFFFF		; 0x0807D55D
3001F5A4  FFFFFFFF		; 0x0807D57D
3001F5A8  FFFFFFFF		; 0x0807D591
3001F5AC  FFFFFFFF		; 0x0807D5F5
3001F5B0  200002A4		; 0x200002A4
3001F5B4  42C80000		; 0x42C80000
3001F5B8  43C80000		; 0x43C80000

END_PROGRAM


**************************************************
	Target variable image generation
**************************************************


*** INPUT:
3001F5BC  4770     		bx lr


*** OUTPUT:
3001F5BE  4770     		bx lr



**************************************************
	Task Init init code
**************************************************

3001F5C0  B082     		sub sp, sp, #8
3001F5C2  F8CD E000		str lr, [sp]
3001F5C6  E92D 0FF0		stmdb sp!, { r4, r5, r6, r7, r8, r9, r10, r11 }

3001F5CA  E8BD 0FF0		ldmia sp!, { r4, r5, r6, r7, r8, r9, r10, r11 }
3001F5CE  F8DD E000		ldr lr, [sp]
3001F5D2  B002     		add sp, sp, #8

3001F5D4  4770     		bx lr

**************************************************
	List program: $$MbSBoot_0
**************************************************

PROGRAM $$MbSBoot_0

        VAR
openChannel_return : USINT;
slave_return : USINT;
broadMsg_return : BOOL;
slaveMsg_return : BOOL;
	END_VAR

END_PROGRAM

3001F5E0  B082     		sub sp, sp, #8
3001F5E2  F8CD E000		str lr, [sp]
3001F5E6  E92D 0FF0		stmdb sp!, { r4, r5, r6, r7, r8, r9, r10, r11 }

#0		{SRC:$$MbSBoot_0}
#1		(*$WAITSWITCH$*)
#2		
#3			(* openChannel_return := sysMbSRtu_OpenChn2( 1, 0, MbBaudrate#MbBaud_19200, MbMode#MbMode_8N2, 1, 2, FALSE, 1); *)
#4			LDP0		1	{LNXT:2|2|-1}
(-) UDINT
#5			sysMbSRtu_OpenChn2		0, MbBaudrate#MbBaud_19200, MbMode#MbMode_8N2, 1, 2, FALSE, 1	{LNXT:2|2|-1}
(*) USINT
3001F5EA  B084     		sub sp, sp, #16
3001F5EC  2001     		mov r0, #1 ; 1
3001F5EE  2100     		mov r1, #0 ; 0
3001F5F0  F44F 4296		mov r2, #19200 ; 19200
3001F5F4  2303     		mov r3, #3 ; 3
3001F5F6  2701     		mov r7, #1 ; 1
3001F5F8  F8CD 7000		str r7, [sp]
3001F5FC  2702     		mov r7, #2 ; 2
3001F5FE  F8CD 7004		str r7, [sp, #+4]
3001F602  2700     		mov r7, #0 ; 0
3001F604  F8CD 7008		str r7, [sp, #+8]
3001F608  2701     		mov r7, #1 ; 1
3001F60A  F8CD 700C		str r7, [sp, #+12]
3001F60E  F8DF 401C		ldr r4, [pc, #+28] ; 0x807FB39
3001F612  F044 0401		orr r4, r4, #1
3001F616  47A0     		blx r4
3001F618  B004     		add sp, sp, #16

#6			ST		openChannel_return	{LNXT:2|2|-1}
(*) USINT
3001F61A  F8DF 7014		ldr r7, [pc, #+20] ; 0x200002A5
3001F61E  7038     		strb r0, [r7]

3001F620  E8BD 0FF0		ldmia sp!, { r4, r5, r6, r7, r8, r9, r10, r11 }
3001F624  F8DD E000		ldr lr, [sp]
3001F628  B002     		add sp, sp, #8

3001F62A  4770     		bx lr

3001F62C  FFFFFFFF		; 0x0807FB39
3001F630  200002A5		; 0x200002A5

END_PROGRAM


**************************************************
	Target variable image generation
**************************************************


*** INPUT:
3001F634  4770     		bx lr


*** OUTPUT:
3001F636  4770     		bx lr



**************************************************
	Task MbBoot init code
**************************************************

3001F638  B082     		sub sp, sp, #8
3001F63A  F8CD E000		str lr, [sp]
3001F63E  E92D 0FF0		stmdb sp!, { r4, r5, r6, r7, r8, r9, r10, r11 }

3001F642  E8BD 0FF0		ldmia sp!, { r4, r5, r6, r7, r8, r9, r10, r11 }
3001F646  F8DD E000		ldr lr, [sp]
3001F64A  B002     		add sp, sp, #8

3001F64C  4770     		bx lr



**************************************************
	Global init code
**************************************************

3001F660  B082     		sub sp, sp, #8
3001F662  F8CD E000		str lr, [sp]
3001F666  E92D 0FF0		stmdb sp!, { r4, r5, r6, r7, r8, r9, r10, r11 }

3001F66A  E8BD 0FF0		ldmia sp!, { r4, r5, r6, r7, r8, r9, r10, r11 }
3001F66E  F8DD E000		ldr lr, [sp]
3001F672  B002     		add sp, sp, #8

3001F674  4770     		bx lr



**************************************************
	Global RETAIN init code
**************************************************

3001F676  B082     		sub sp, sp, #8
3001F678  F8CD E000		str lr, [sp]
3001F67C  E92D 0FF0		stmdb sp!, { r4, r5, r6, r7, r8, r9, r10, r11 }

3001F680  E8BD 0FF0		ldmia sp!, { r4, r5, r6, r7, r8, r9, r10, r11 }
3001F684  F8DD E000		ldr lr, [sp]
3001F688  B002     		add sp, sp, #8

3001F68A  4770     		bx lr



**************************************************
	Task $$VirtualTables init code
**************************************************

3001F68C  B082     		sub sp, sp, #8
3001F68E  F8CD E000		str lr, [sp]
3001F692  E92D 0FF0		stmdb sp!, { r4, r5, r6, r7, r8, r9, r10, r11 }

3001F696  E8BD 0FF0		ldmia sp!, { r4, r5, r6, r7, r8, r9, r10, r11 }
3001F69A  F8DD E000		ldr lr, [sp]
3001F69E  B002     		add sp, sp, #8

3001F6A0  4770     		bx lr



********************************************
MEMORY MAP
********************************************

Code area type:          		       main code
Start code area:          		000000003001E400h
End code area:            		000000003001F9ACh
Code size:                		000015ACh

Start local data area:    		0000000020000298h
End local data area:      		0000000020000460h
Local data size:          		000001C8h

Start retentive data area:		0000000038000800h
End retentive data area:  		0000000038000800h
Retentive data size:      		00000000h

Start bit data area:      		0000000000000000h
End bit data area:        		0000000000000000h
Bit data size:            		00000000h



********************************************
CODE ID:                                26D24D7B
DEBUG MEMO ID:                          3001E6EE
FULL MEMO ID:                           0000F533
********************************************
